ccopy_reg
_reconstructor
p0
(csklearn.pipeline
Pipeline
p1
c__builtin__
object
p2
Ntp3
Rp4
(dp5
S'_sklearn_version'
p6
S'0.18.1'
p7
sS'steps'
p8
(lp9
(S'scaler'
p10
g0
(csklearn.preprocessing.data
StandardScaler
p11
g2
Ntp12
Rp13
(dp14
S'mean_'
p15
cnumpy.core.multiarray
_reconstruct
p16
(cnumpy
ndarray
p17
(I0
tp18
S'b'
p19
tp20
Rp21
(I1
(I7
tp22
cnumpy
dtype
p23
(S'f8'
p24
I0
I1
tp25
Rp26
(I3
S'<'
p27
NNNI-1
I-1
I0
tp28
bI00
S'\xaa\xaa\xaa\xaa\xb1\x8eHA\x92$IR\xec\xcbKA\xc5\xb0\xd6\x8b\xe7\x9d@A1\xcd\x9c\x86\x8f"\xe2?C{\t-\xe8\xd0FAZZZZ\x12R2Agfff\xf6\xc7&A'
p29
tp30
bsS'with_mean'
p31
I01
sS'var_'
p32
g16
(g17
(I0
tp33
g19
tp34
Rp35
(I1
(I7
tp36
g26
I00
S'\xd0xT\x86R\x84\xb6B\xd6\xd8+\xd5\xc2\xbf\xc3B\x19\xa5[\t\x0f\xc0\x83B\xff\xdea6W\x87\xb2?Q\x9abg\xc5\xf0\xd4Bc\x11{\xd3\x7f\x8d\x90BE\x8fD\x16}OWB'
p37
tp38
bsS'scale_'
p39
g16
(g17
(I0
tp40
g19
tp41
Rp42
(I1
(I7
tp43
g26
I00
S'\xd8\xe2\xff\xa2\x14\xfbRA\xaf\xea\x07\x90\x96#YA\x80\xab\x0b\x10\xc7#9A\xc4@\x81t\xcd7\xd1?\xe5l\x89\x07\xe8MbAC0\xb8"&F@A\xaen[*\xf8O#A'
p44
tp45
bsS'with_std'
p46
I01
sS'n_samples_seen_'
p47
I119
sg6
g7
sS'copy'
p48
I01
sbtp49
a(S'classifier'
p50
g0
(csklearn.linear_model.logistic
LogisticRegression
p51
g2
Ntp52
Rp53
(dp54
S'warm_start'
p55
I00
sS'C'
p56
F0.001
sS'classes_'
p57
g16
(g17
(I0
tp58
g19
tp59
Rp60
(I1
(I2
tp61
g23
(S'b1'
p62
I0
I1
tp63
Rp64
(I3
S'|'
p65
NNNI-1
I-1
I0
tp66
bI00
S'\x00\x01'
p67
tp68
bsS'n_jobs'
p69
I1
sS'verbose'
p70
I0
sS'fit_intercept'
p71
I01
sS'max_iter'
p72
I500
sS'class_weight'
p73
S'balanced'
p74
sS'n_iter_'
p75
g16
(g17
(I0
tp76
g19
tp77
Rp78
(I1
(I1
tp79
g23
(S'i4'
p80
I0
I1
tp81
Rp82
(I3
S'<'
p83
NNNI-1
I-1
I0
tp84
bI00
S'\x06\x00\x00\x00'
p85
tp86
bsS'intercept_'
p87
g16
(g17
(I0
tp88
g19
tp89
Rp90
(I1
(I1
tp91
g26
I00
S'\xe2\xb1\xc2\xf5\xf6`\x99\xbf'
p92
tp93
bsS'penalty'
p94
S'l2'
p95
sS'multi_class'
p96
S'ovr'
p97
sS'random_state'
p98
I0
sg6
g7
sS'dual'
p99
I00
sS'tol'
p100
F0.01
sS'coef_'
p101
g16
(g17
(I0
tp102
g19
tp103
Rp104
(I1
(I1
I7
tp105
g26
I00
S'\x1bI\x97dU\x7f\x9c?\x15 \xac\xcf\xf4\x92\x97?\xd2m+\xdc\xaa\x8d\x94?\xd4\x04\xe0e\x88\x90\x94?\x9c\x81\xd22\xf9\x87\x88?\x85\xb2+\x9fs\xd9\x89?\xd3\xe9\xb5\n\xbf\xfd\x8a?'
p106
tp107
bsS'solver'
p108
S'sag'
p109
sS'intercept_scaling'
p110
I1
sbtp111
asb.