(dp0
S'METTS MARK'
p1
(dp2
S'salary'
p3
F365788.0
sS'to_messages'
p4
F807.0
sS'total_payments'
p5
F1061827.0
sS'fraction_from_poi'
p6
F1.3103448275862069
sS'bonus'
p7
F600000.0
sS'total_stock_value'
p8
F585062.0
sS'expenses'
p9
F94299.0
sS'fraction_to_poi'
p10
F0.0012391573729863693
sS'exercised_stock_options'
p11
F3218787.3333333335
sS'from_messages'
p12
F29.0
sS'other'
p13
F1740.0
sS'related_to_poi'
p14
F0.8863636363636364
sS'from_this_person_to_poi'
p15
F1.0
sS'Effective Salary'
p16
F1617980.2
sS'poi'
p17
I00
sS'long_term_incentive'
p18
F746491.2
sS'shared_receipt_with_poi'
p19
F702.0
sS'restricted_stock'
p20
F585062.0
sS'from_poi_to_this_person'
p21
F38.0
ssS'BAXTER JOHN C'
p22
(dp23
g3
F267102.0
sg4
F2073.860465116279
sg5
F5634343.0
sg6
F0.10659714263885704
sg7
F1200000.0
sg8
F10623258.0
sg9
F11200.0
sg10
F0.01988203103974163
sg11
F6680544.0
sg12
F608.7906976744187
sg13
F2660303.0
sg14
F0.47810652426443817
sg15
F41.23255813953488
sg16
F3041957.0
sg17
I00
sg18
F1586055.0
sg19
F1176.4651162790697
sg20
F3942714.0
sg21
F64.8953488372093
ssS'ELLIOTT STEVEN'
p24
(dp25
g3
F170941.0
sg4
F2073.860465116279
sg5
F211725.0
sg6
F0.10659714263885704
sg7
F350000.0
sg8
F6678735.0
sg9
F78552.0
sg10
F0.01988203103974163
sg11
F4890344.0
sg12
F608.7906976744187
sg13
F12961.0
sg14
F0.47810652426443817
sg15
F41.23255813953488
sg16
F1188880.2
sg17
I00
sg18
F746491.2
sg19
F1176.4651162790697
sg20
F1788391.0
sg21
F64.8953488372093
ssS'CORDES WILLIAM R'
p26
(dp27
g3
F284087.5425531915
sg4
F764.0
sg5
F2990544.3518518517
sg6
F0.8333333333333334
sg7
F1201773.0740740742
sg8
F1038185.0
sg9
F54352.724137931036
sg10
F0.0
sg11
F651850.0
sg12
F12.0
sg13
F469486.3777777778
sg14
F0.08762886597938144
sg15
F0.0
sg16
F2177999.0924893348
sg17
I00
sg18
F746491.2
sg19
F58.0
sg20
F386335.0
sg21
F10.0
ssS'HANNON KEVIN P'
p28
(dp29
g3
F243293.0
sg4
F1045.0
sg5
F288682.0
sg6
F1.0
sg7
F1500000.0
sg8
F6391065.0
sg9
F34039.0
sg10
F0.020095693779904306
sg11
F5538001.0
sg12
F32.0
sg13
F11350.0
sg14
F1.0102135561745589
sg15
F21.0
sg16
F3326265.0
sg17
I01
sg18
F1617011.0
sg19
F1035.0
sg20
F853064.0
sg21
F32.0
ssS'MORDAUNT KRISTINA M'
p30
(dp31
g3
F267093.0
sg4
F2073.860465116279
sg5
F628522.0
sg6
F0.10659714263885704
sg7
F325000.0
sg8
F208510.0
sg9
F35018.0
sg10
F0.01988203103974163
sg11
F3218787.3333333335
sg12
F608.7906976744187
sg13
F1411.0
sg14
F0.47810652426443817
sg15
F41.23255813953488
sg16
F1303566.2
sg17
I00
sg18
F746491.2
sg19
F1176.4651162790697
sg20
F208510.0
sg21
F64.8953488372093
ssS'MEYER ROCKFORD G'
p32
(dp33
g3
F284087.5425531915
sg4
F232.0
sg5
F1848227.0
sg6
F0.0
sg7
F1201773.0740740742
sg8
F955873.0
sg9
F54352.724137931036
sg10
F0.0
sg11
F493489.0
sg12
F28.0
sg13
F469486.3777777778
sg14
F0.08461538461538462
sg15
F0.0
sg16
F2177999.0924893348
sg17
I00
sg18
F746491.2
sg19
F22.0
sg20
F462384.0
sg21
F0.0
ssS'MCMAHON JEFFREY'
p34
(dp35
g3
F370448.0
sg4
F2355.0
sg5
F4099771.0
sg6
F1.2083333333333333
sg7
F2600000.0
sg8
F1662855.0
sg9
F137108.0
sg10
F0.011040339702760084
sg11
F1104054.0
sg12
F48.0
sg13
F297353.0
sg14
F0.9621306699958385
sg15
F26.0
sg16
F3528202.0
sg17
I00
sg18
F694862.0
sg19
F2228.0
sg20
F558801.0
sg21
F58.0
ssS'HAEDICKE MARK E'
p36
(dp37
g3
F374125.0
sg4
F4009.0
sg5
F3859065.0
sg6
F0.09273570324574962
sg7
F1150000.0
sg8
F803094.0
sg9
F76169.0
sg10
F0.015215764529807932
sg11
F608750.0
sg12
F1941.0
sg13
F52382.0
sg14
F0.35092436974789915
sg15
F61.0
sg16
F2431302.0
sg17
I00
sg18
F983346.0
sg19
F1847.0
sg20
F524169.0
sg21
F180.0
ssS'PIPER GREGORY F'
p38
(dp39
g3
F197091.0
sg4
F1238.0
sg5
F1737629.0
sg6
F0.2747747747747748
sg7
F400000.0
sg8
F880290.0
sg9
F43057.0
sg10
F0.03877221324717286
sg11
F880290.0
sg12
F222.0
sg13
F778.0
sg14
F0.5828767123287671
sg15
F48.0
sg16
F1300525.2
sg17
I00
sg18
F746491.2
sg19
F742.0
sg20
F409554.0
sg21
F61.0
ssS'HUMPHREY GENE E'
p40
(dp41
g3
F130724.0
sg4
F128.0
sg5
F3100224.0
sg6
F0.5882352941176471
sg7
F1201773.0740740742
sg8
F2282768.0
sg9
F4994.0
sg10
F0.1328125
sg11
F2282768.0
sg12
F17.0
sg13
F469486.3777777778
sg14
F1.006896551724138
sg15
F17.0
sg16
F2073994.274074074
sg17
I00
sg18
F746491.2
sg19
F119.0
sg20
F1200658.3529411764
sg21
F10.0
ssS'BLACHMAN JEREMY M'
p42
(dp43
g3
F248546.0
sg4
F2475.0
sg5
F2014835.0
sg6
F1.7857142857142858
sg7
F850000.0
sg8
F954354.0
sg9
F84208.0
sg10
F0.0008080808080808081
sg11
F765313.0
sg12
F14.0
sg13
F272.0
sg14
F0.9453595821615106
sg15
F2.0
sg16
F1846147.0
sg17
I00
sg18
F831809.0
sg19
F2326.0
sg20
F189041.0
sg21
F25.0
ssS'SUNDE MARTIN'
p44
(dp45
g3
F257486.0
sg4
F2647.0
sg5
F1545059.0
sg6
F0.9736842105263158
sg7
F700000.0
sg8
F698920.0
sg9
F54352.724137931036
sg10
F0.004911220249338874
sg11
F3218787.3333333335
sg12
F38.0
sg13
F111122.0
sg14
F0.9739292364990689
sg15
F13.0
sg16
F1379584.2758620689
sg17
I00
sg18
F476451.0
sg19
F2565.0
sg20
F698920.0
sg21
F37.0
ssS'GIBBS DANA R'
p46
(dp47
g3
F284087.5425531915
sg4
F169.0
sg5
F966522.0
sg6
F0.0
sg7
F1201773.0740740742
sg8
F2218275.0
sg9
F54352.724137931036
sg10
F0.0
sg11
F2218275.0
sg12
F12.0
sg13
F469486.3777777778
sg14
F0.1270718232044199
sg15
F0.0
sg16
F1893419.8924893346
sg17
I00
sg18
F461912.0
sg19
F23.0
sg20
F1200658.3529411764
sg21
F0.0
ssS'COLWELL WESLEY'
p48
(dp49
g3
F288542.0
sg4
F1758.0
sg5
F1490344.0
sg6
F6.0
sg7
F1200000.0
sg8
F698242.0
sg9
F16514.0
sg10
F0.006257110352673493
sg11
F3218787.3333333335
sg12
F40.0
sg13
F101740.0
sg14
F0.7691879866518354
sg15
F11.0
sg16
F2218519.2
sg17
I01
sg18
F746491.2
sg19
F1132.0
sg20
F698242.0
sg21
F240.0
ssS'MULLER MARK S'
p50
(dp51
g3
F251654.0
sg4
F136.0
sg5
F3202070.0
sg6
F0.75
sg7
F1100000.0
sg8
F1416848.0
sg9
F54352.724137931036
sg10
F0.0
sg11
F1056320.0
sg12
F16.0
sg13
F947.0
sg14
F0.8289473684210527
sg15
F0.0
sg16
F3022846.275862069
sg17
I00
sg18
F1725545.0
sg19
F114.0
sg20
F360528.0
sg21
F12.0
ssS'JACKSON CHARLENE R'
p52
(dp53
g3
F288558.0
sg4
F258.0
sg5
F551174.0
sg6
F0.44642857142857145
sg7
F250000.0
sg8
F725735.0
sg9
F10181.0
sg10
F0.07364341085271318
sg11
F185063.0
sg12
F56.0
sg13
F2435.0
sg14
F0.5127388535031847
sg15
F19.0
sg16
F1274868.2
sg17
I00
sg18
F746491.2
sg19
F117.0
sg20
F540672.0
sg21
F25.0
ssS'WESTFAHL RICHARD K'
p54
(dp55
g3
F63744.0
sg4
F2073.860465116279
sg5
F762135.0
sg6
F0.10659714263885704
sg7
F1201773.0740740742
sg8
F384930.0
sg9
F51870.0
sg10
F0.01988203103974163
sg11
F3218787.3333333335
sg12
F608.7906976744187
sg13
F401130.0
sg14
F0.47810652426443817
sg15
F41.23255813953488
sg16
F1469838.0740740742
sg17
I00
sg18
F256191.0
sg19
F1176.4651162790697
sg20
F384930.0
sg21
F64.8953488372093
ssS'WALTERS GARETH W'
p56
(dp57
g3
F284087.5425531915
sg4
F2073.860465116279
sg5
F87410.0
sg6
F0.10659714263885704
sg7
F1201773.0740740742
sg8
F1030329.0
sg9
F33785.0
sg10
F0.01988203103974163
sg11
F1030329.0
sg12
F608.7906976744187
sg13
F469486.3777777778
sg14
F0.47810652426443817
sg15
F41.23255813953488
sg16
F2198566.816627266
sg17
I00
sg18
F746491.2
sg19
F1176.4651162790697
sg20
F1200658.3529411764
sg21
F64.8953488372093
ssS'WALLS JR ROBERT H'
p58
(dp59
g3
F357091.0
sg4
F671.0
sg5
F1798780.0
sg6
F0.11643835616438356
sg7
F850000.0
sg8
F5898997.0
sg9
F50936.0
sg10
F0.0
sg11
F4346544.0
sg12
F146.0
sg13
F2.0
sg14
F0.2839657282741738
sg15
F0.0
sg16
F1696906.0
sg17
I00
sg18
F540751.0
sg19
F215.0
sg20
F1552453.0
sg21
F17.0
ssS'KITCHEN LOUISE'
p60
(dp61
g3
F271442.0
sg4
F8305.0
sg5
F3471141.0
sg6
F0.14525462962962962
sg7
F3100000.0
sg8
F547143.0
sg9
F5774.0
sg10
F0.023359422034918725
sg11
F81042.0
sg12
F1728.0
sg13
F93925.0
sg14
F0.4100468454101465
sg15
F194.0
sg16
F4112159.2
sg17
I00
sg18
F746491.2
sg19
F3669.0
sg20
F466101.0
sg21
F251.0
ssS'PRENTICE JAMES'
p62
(dp63
g3
F284087.5425531915
sg4
F2073.860465116279
sg5
F564348.0
sg6
F0.10659714263885704
sg7
F1201773.0740740742
sg8
F1095040.0
sg9
F54352.724137931036
sg10
F0.01988203103974163
sg11
F886231.0
sg12
F608.7906976744187
sg13
F469486.3777777778
sg14
F0.47810652426443817
sg15
F41.23255813953488
sg16
F2177999.0924893348
sg17
I00
sg18
F746491.2
sg19
F1176.4651162790697
sg20
F208809.0
sg21
F64.8953488372093
ssS'SHANKMAN JEFFREY A'
p64
(dp65
g3
F304110.0
sg4
F3221.0
sg5
F3038702.0
sg6
F0.0350615441999254
sg7
F2000000.0
sg8
F2072035.0
sg9
F178979.0
sg10
F0.025768394908413535
sg11
F1441898.0
sg12
F2681.0
sg13
F1191.0
sg14
F0.3231108098949509
sg15
F83.0
sg16
F2679553.0
sg17
I00
sg18
F554422.0
sg19
F1730.0
sg20
F630137.0
sg21
F94.0
ssS'BERGSIEKER RICHARD P'
p66
(dp67
g3
F187922.0
sg4
F383.0
sg5
F618850.0
sg6
F0.06779661016949153
sg7
F250000.0
sg8
F659249.0
sg9
F59175.0
sg10
F0.0
sg11
F3218787.3333333335
sg12
F59.0
sg13
F427316.0
sg14
F0.5361990950226244
sg15
F0.0
sg16
F558997.0
sg17
I00
sg18
F180250.0
sg19
F233.0
sg20
F659249.0
sg21
F4.0
ssS'BIBI PHILIPPE A'
p68
(dp69
g3
F213625.0
sg4
F1607.0
sg5
F2047593.0
sg6
F0.575
sg7
F1000000.0
sg8
F1843816.0
sg9
F38559.0
sg10
F0.004978220286247666
sg11
F1465734.0
sg12
F40.0
sg13
F425688.0
sg14
F0.8299939283545841
sg15
F8.0
sg16
F1544787.0
sg17
I00
sg18
F369721.0
sg19
F1336.0
sg20
F378082.0
sg21
F23.0
ssS'PIRO JIM'
p70
(dp71
g3
F284087.5425531915
sg4
F58.0
sg5
F2990544.3518518517
sg6
F0.0
sg7
F1201773.0740740742
sg8
F47304.0
sg9
F54352.724137931036
sg10
F0.017241379310344827
sg11
F3218787.3333333335
sg12
F16.0
sg13
F469486.3777777778
sg14
F0.05405405405405406
sg15
F1.0
sg16
F2177999.0924893348
sg17
I00
sg18
F746491.2
sg19
F3.0
sg20
F47304.0
sg21
F0.0
ssS'RIEKER PAULA H'
p72
(dp73
g3
F249201.0
sg4
F1328.0
sg5
F1099100.0
sg6
F0.4268292682926829
sg7
F700000.0
sg8
F1918887.0
sg9
F33271.0
sg10
F0.03614457831325301
sg11
F1635238.0
sg12
F82.0
sg13
F1950.0
sg14
F0.951063829787234
sg15
F48.0
sg16
F1662421.2
sg17
I01
sg18
F746491.2
sg19
F1258.0
sg20
F283649.0
sg21
F35.0
ssS'BECK SALLY W'
p74
(dp75
g3
F231330.0
sg4
F7315.0
sg5
F969068.0
sg6
F0.033156804052498275
sg7
F700000.0
sg8
F126027.0
sg9
F37172.0
sg10
F0.052768284347231714
sg11
F3218787.3333333335
sg12
F4343.0
sg13
F566.0
sg14
F0.2718305026591182
sg15
F386.0
sg16
F1640649.2
sg17
I00
sg18
F746491.2
sg19
F2639.0
sg20
F126027.0
sg21
F144.0
ssS'HAUG DAVID L'
p76
(dp77
g3
F284087.5425531915
sg4
F573.0
sg5
F475.0
sg6
F0.21052631578947367
sg7
F1201773.0740740742
sg8
F2217299.0
sg9
F475.0
sg10
F0.012216404886561954
sg11
F3218787.3333333335
sg12
F19.0
sg13
F469486.3777777778
sg14
F0.8141891891891891
sg15
F7.0
sg16
F2231876.816627266
sg17
I00
sg18
F746491.2
sg19
F471.0
sg20
F2217299.0
sg21
F4.0
ssS'ECHOLS JOHN B'
p78
(dp79
g3
F182245.0
sg4
F2073.860465116279
sg5
F2692324.0
sg6
F0.10659714263885704
sg7
F200000.0
sg8
F1008941.0
sg9
F21530.0
sg10
F0.01988203103974163
sg11
F601438.0
sg12
F608.7906976744187
sg13
F53775.0
sg14
F0.47810652426443817
sg15
F41.23255813953488
sg16
F2595489.0
sg17
I00
sg18
F2234774.0
sg19
F1176.4651162790697
sg20
F407503.0
sg21
F64.8953488372093
ssS'HICKERSON GARY J'
p80
(dp81
g3
F211788.0
sg4
F1320.0
sg5
F2081796.0
sg6
F1.4814814814814814
sg7
F1700000.0
sg8
F441096.0
sg9
F98849.0
sg10
F0.0007575757575757576
sg11
F3218787.3333333335
sg12
F27.0
sg13
F1936.0
sg14
F0.6985894580549369
sg15
F1.0
sg16
F1882162.0
sg17
I00
sg18
F69223.0
sg19
F900.0
sg20
F441096.0
sg21
F40.0
ssS'LEWIS RICHARD'
p82
(dp83
g3
F284087.5425531915
sg4
F952.0
sg5
F2990544.3518518517
sg6
F0.38461538461538464
sg7
F1201773.0740740742
sg8
F850477.0
sg9
F54352.724137931036
sg10
F0.0
sg11
F850477.0
sg12
F26.0
sg13
F469486.3777777778
sg14
F0.7658486707566462
sg15
F0.0
sg16
F2177999.0924893348
sg17
I00
sg18
F746491.2
sg19
F739.0
sg20
F1200658.3529411764
sg21
F10.0
ssS'HAYES ROBERT E'
p84
(dp85
g3
F284087.5425531915
sg4
F504.0
sg5
F7961.0
sg6
F1.3333333333333333
sg7
F1201773.0740740742
sg8
F151418.0
sg9
F54352.724137931036
sg10
F0.0
sg11
F3218787.3333333335
sg12
F12.0
sg13
F469486.3777777778
sg14
F0.12790697674418605
sg15
F0.0
sg16
F2177999.0924893348
sg17
I00
sg18
F746491.2
sg19
F50.0
sg20
F151418.0
sg21
F16.0
ssS'KOPPER MICHAEL J'
p86
(dp87
g3
F224305.0
sg4
F2073.860465116279
sg5
F2652612.0
sg6
F0.10659714263885704
sg7
F800000.0
sg8
F985032.0
sg9
F118134.0
sg10
F0.01988203103974163
sg11
F3218787.3333333335
sg12
F608.7906976744187
sg13
F907502.0
sg14
F0.47810652426443817
sg15
F41.23255813953488
sg16
F1508842.0
sg17
I01
sg18
F602671.0
sg19
F1176.4651162790697
sg20
F985032.0
sg21
F64.8953488372093
ssS'LEFF DANIEL P'
p88
(dp89
g3
F273746.0
sg4
F2822.0
sg5
F2664228.0
sg6
F1.0634920634920635
sg7
F1000000.0
sg8
F360528.0
sg9
F54352.724137931036
sg10
F0.004961020552799433
sg11
F3218787.3333333335
sg12
F63.0
sg13
F3083.0
sg14
F0.9542461005199306
sg15
F14.0
sg16
F2606792.275862069
sg17
I00
sg18
F1387399.0
sg19
F2672.0
sg20
F360528.0
sg21
F67.0
ssS'LAVORATO JOHN J'
p90
(dp91
g3
F339288.0
sg4
F7259.0
sg5
F10425757.0
sg6
F0.20425531914893616
sg7
F8000000.0
sg8
F5167144.0
sg9
F49537.0
sg10
F0.05661936905909905
sg11
F4158995.0
sg12
F2585.0
sg13
F1552.0
sg14
F0.4978667208451849
sg15
F411.0
sg16
F10325131.0
sg17
I00
sg18
F2035380.0
sg19
F3962.0
sg20
F1008149.0
sg21
F528.0
ssS'BERBERIAN DAVID'
p92
(dp93
g3
F216582.0
sg4
F2073.860465116279
sg5
F228474.0
sg6
F0.10659714263885704
sg7
F1201773.0740740742
sg8
F2493616.0
sg9
F11892.0
sg10
F0.01988203103974163
sg11
F1624396.0
sg12
F608.7906976744187
sg13
F469486.3777777778
sg14
F0.47810652426443817
sg15
F41.23255813953488
sg16
F2152954.274074074
sg17
I00
sg18
F746491.2
sg19
F1176.4651162790697
sg20
F869220.0
sg21
F64.8953488372093
ssS'DETMERING TIMOTHY J'
p94
(dp95
g3
F210500.0
sg4
F2073.860465116279
sg5
F1204583.0
sg6
F0.10659714263885704
sg7
F425000.0
sg8
F2027865.0
sg9
F52255.0
sg10
F0.01988203103974163
sg11
F2027865.0
sg12
F608.7906976744187
sg13
F1105.0
sg14
F0.47810652426443817
sg15
F41.23255813953488
sg16
F998902.0
sg17
I00
sg18
F415657.0
sg19
F1176.4651162790697
sg20
F315068.0
sg21
F64.8953488372093
ssS'POWERS WILLIAM'
p96
(dp97
g3
F284087.5425531915
sg4
F653.0
sg5
F2990544.3518518517
sg6
F0.0
sg7
F1201773.0740740742
sg8
F3643352.6428571427
sg9
F54352.724137931036
sg10
F0.0
sg11
F3218787.3333333335
sg12
F26.0
sg13
F469486.3777777778
sg14
F0.017673048600883652
sg15
F0.0
sg16
F2177999.0924893348
sg17
I00
sg18
F746491.2
sg19
F12.0
sg20
F1200658.3529411764
sg21
F0.0
ssS'GOLD JOSEPH'
p98
(dp99
g3
F272880.0
sg4
F2073.860465116279
sg5
F2146973.0
sg6
F0.10659714263885704
sg7
F750000.0
sg8
F877611.0
sg9
F54352.724137931036
sg10
F0.01988203103974163
sg11
F436515.0
sg12
F608.7906976744187
sg13
F819288.0
sg14
F0.47810652426443817
sg15
F41.23255813953488
sg16
F1273332.2758620689
sg17
I00
sg18
F304805.0
sg19
F1176.4651162790697
sg20
F441096.0
sg21
F64.8953488372093
ssS'BANNANTINE JAMES M'
p100
(dp101
g3
F477.0
sg4
F566.0
sg5
F916197.0
sg6
F1.3448275862068966
sg7
F1201773.0740740742
sg8
F5243487.0
sg9
F56301.0
sg10
F0.0
sg11
F4046157.0
sg12
F29.0
sg13
F864523.0
sg14
F0.8470588235294118
sg15
F0.0
sg16
F1892440.274074074
sg17
I00
sg18
F746491.2
sg19
F465.0
sg20
F1757552.0
sg21
F39.0
ssS'SHAPIRO RICHARD S'
p102
(dp103
g3
F269076.0
sg4
F15149.0
sg5
F1057548.0
sg6
F0.060905349794238686
sg7
F650000.0
sg8
F987001.0
sg9
F137767.0
sg10
F0.004290712258234867
sg11
F607837.0
sg12
F1215.0
sg13
F705.0
sg14
F0.28513810804204354
sg15
F65.0
sg16
F1527800.2
sg17
I00
sg18
F746491.2
sg19
F4527.0
sg20
F379164.0
sg21
F74.0
ssS'SHERRIFF JOHN R'
p104
(dp105
g3
F428780.0
sg4
F3187.0
sg5
F4335388.0
sg6
F0.30434782608695654
sg7
F1500000.0
sg8
F3128982.0
sg9
F54352.724137931036
sg10
F0.0072168183244430495
sg11
F1835558.0
sg12
F92.0
sg13
F1852186.0
sg14
F0.656907593778591
sg15
F23.0
sg16
F2428849.275862069
sg17
I00
sg18
F554422.0
sg19
F2103.0
sg20
F1293424.0
sg21
F28.0
ssS'SHELBY REX'
p106
(dp107
g3
F211844.0
sg4
F225.0
sg5
F2003885.0
sg6
F0.3333333333333333
sg7
F200000.0
sg8
F2493616.0
sg9
F22884.0
sg10
F0.06222222222222222
sg11
F1624396.0
sg12
F39.0
sg13
F1573324.0
sg14
F0.44696969696969696
sg15
F14.0
sg16
F1135451.2
sg17
I01
sg18
F746491.2
sg19
F91.0
sg20
F869220.0
sg21
F13.0
ssS'DEFFNER JOSEPH M'
p108
(dp109
g3
F206121.0
sg4
F714.0
sg5
F1208649.0
sg6
F1.554054054054054
sg7
F600000.0
sg8
F159211.0
sg9
F41626.0
sg10
F0.0056022408963585435
sg11
F17378.0
sg12
F74.0
sg13
F25553.0
sg14
F0.8515228426395939
sg15
F4.0
sg16
F1099844.0
sg17
I00
sg18
F335349.0
sg19
F552.0
sg20
F141833.0
sg21
F115.0
ssS'KISHKILL JOSEPH G'
p110
(dp111
g3
F174246.0
sg4
F2073.860465116279
sg5
F704896.0
sg6
F0.10659714263885704
sg7
F1201773.0740740742
sg8
F1034346.0
sg9
F116335.0
sg10
F0.01988203103974163
sg11
F3218787.3333333335
sg12
F608.7906976744187
sg13
F465357.0
sg14
F0.47810652426443817
sg15
F41.23255813953488
sg16
F2006175.2740740739
sg17
I00
sg18
F746491.2
sg19
F1176.4651162790697
sg20
F1034346.0
sg21
F64.8953488372093
ssS'WHALLEY LAWRENCE G'
p112
(dp113
g3
F510364.0
sg4
F6019.0
sg5
F4677574.0
sg6
F0.3345323741007194
sg7
F3000000.0
sg8
F6079137.0
sg9
F57838.0
sg10
F0.003987373317826882
sg11
F3282960.0
sg12
F556.0
sg13
F301026.0
sg14
F0.6281368821292775
sg15
F24.0
sg16
F4260872.0
sg17
I00
sg18
F808346.0
sg19
F3920.0
sg20
F2796177.0
sg21
F186.0
ssS'HAYSLETT RODERICK J'
p114
(dp115
g3
F284087.5425531915
sg4
F2649.0
sg5
F2990544.3518518517
sg6
F0.03298774740810556
sg7
F1201773.0740740742
sg8
F346663.0
sg9
F54352.724137931036
sg10
F0.014345035862589657
sg11
F3218787.3333333335
sg12
F1061.0
sg13
F469486.3777777778
sg14
F0.17358490566037735
sg15
F38.0
sg16
F2177999.0924893348
sg17
I00
sg18
F746491.2
sg19
F571.0
sg20
F346663.0
sg21
F35.0
ssS'MCCONNELL MICHAEL S'
p116
(dp117
g3
F365038.0
sg4
F3329.0
sg5
F2101364.0
sg6
F0.03355215171407731
sg7
F1100000.0
sg8
F3101279.0
sg9
F81364.0
sg10
F0.058275758486031844
sg11
F1623010.0
sg12
F2742.0
sg13
F540.0
sg14
F0.4076758359413606
sg15
F194.0
sg16
F1938096.0
sg17
I00
sg18
F554422.0
sg19
F2189.0
sg20
F1478269.0
sg21
F92.0
ssS'DELAINEY DAVID W'
p118
(dp119
g3
F365163.0
sg4
F3093.0
sg5
F4747979.0
sg6
F0.021505376344086023
sg7
F3000000.0
sg8
F3614261.0
sg9
F86174.0
sg10
F0.19689621726479145
sg11
F2291113.0
sg12
F3069.0
sg13
F1661.0
sg14
F0.4498539435248296
sg15
F609.0
sg16
F4573970.0
sg17
I01
sg18
F1294981.0
sg19
F2097.0
sg20
F1323148.0
sg21
F66.0
ssS'SULLIVAN-SHAKLOVITZ COLLEEN'
p120
(dp121
g3
F162779.0
sg4
F2073.860465116279
sg5
F999356.0
sg6
F0.10659714263885704
sg7
F100000.0
sg8
F1362375.0
sg9
F54352.724137931036
sg10
F0.01988203103974163
sg11
F1362375.0
sg12
F608.7906976744187
sg13
F162.0
sg14
F0.47810652426443817
sg15
F41.23255813953488
sg16
F762848.275862069
sg17
I00
sg18
F554422.0
sg19
F1176.4651162790697
sg20
F1200658.3529411764
sg21
F64.8953488372093
ssS'LINDHOLM TOD A'
p122
(dp123
g3
F236457.0
sg4
F2073.860465116279
sg5
F875889.0
sg6
F0.10659714263885704
sg7
F200000.0
sg8
F3064208.0
sg9
F57727.0
sg10
F0.01988203103974163
sg11
F2549361.0
sg12
F608.7906976744187
sg13
F2630.0
sg14
F0.47810652426443817
sg15
F41.23255813953488
sg16
F553730.0
sg17
I00
sg18
F175000.0
sg19
F1176.4651162790697
sg20
F514847.0
sg21
F64.8953488372093
ssS'LAY KENNETH L'
p124
(dp125
g3
F1072321.0
sg4
F4273.0
sg5
F103559793.0
sg6
F3.4166666666666665
sg7
F7000000.0
sg8
F49110078.0
sg9
F99832.0
sg10
F0.003744441844137608
sg11
F34348384.0
sg12
F36.0
sg13
F10359729.0
sg14
F0.5917846368066837
sg15
F16.0
sg16
F11572489.0
sg17
I01
sg18
F3600000.0
sg19
F2411.0
sg20
F14761694.0
sg21
F123.0
ssS'BUTTS ROBERT H'
p126
(dp127
g3
F261516.0
sg4
F2073.860465116279
sg5
F1271582.0
sg6
F0.10659714263885704
sg7
F750000.0
sg8
F417619.0
sg9
F9410.0
sg10
F0.01988203103974163
sg11
F3218787.3333333335
sg12
F608.7906976744187
sg13
F150656.0
sg14
F0.47810652426443817
sg15
F41.23255813953488
sg16
F1177106.0
sg17
I00
sg18
F175000.0
sg19
F1176.4651162790697
sg20
F417619.0
sg21
F64.8953488372093
ssS'OLSON CINDY K'
p128
(dp129
g3
F329078.0
sg4
F1184.0
sg5
F1321557.0
sg6
F0.38461538461538464
sg7
F750000.0
sg8
F2606763.0
sg9
F63791.0
sg10
F0.01266891891891892
sg11
F1637034.0
sg12
F52.0
sg13
F972.0
sg14
F0.720873786407767
sg15
F15.0
sg16
F1115287.0
sg17
I00
sg18
F100000.0
sg19
F856.0
sg20
F969729.0
sg21
F20.0
ssS'MCDONALD REBECCA'
p130
(dp131
g3
F284087.5425531915
sg4
F894.0
sg5
F2990544.3518518517
sg6
F4.153846153846154
sg7
F1201773.0740740742
sg8
F1691366.0
sg9
F54352.724137931036
sg10
F0.0011185682326621924
sg11
F757301.0
sg12
F13.0
sg13
F469486.3777777778
sg14
F0.8544652701212789
sg15
F1.0
sg16
F2177999.0924893348
sg17
I00
sg18
F746491.2
sg19
F720.0
sg20
F934065.0
sg21
F54.0
ssS'CUMBERLAND MICHAEL S'
p132
(dp133
g3
F184899.0
sg4
F2073.860465116279
sg5
F807956.0
sg6
F0.10659714263885704
sg7
F325000.0
sg8
F207940.0
sg9
F22344.0
sg10
F0.01988203103974163
sg11
F3218787.3333333335
sg12
F608.7906976744187
sg13
F713.0
sg14
F0.47810652426443817
sg15
F41.23255813953488
sg16
F762555.0
sg17
I00
sg18
F275000.0
sg19
F1176.4651162790697
sg20
F207940.0
sg21
F64.8953488372093
ssS'GAHN ROBERT S'
p134
(dp135
g3
F192008.0
sg4
F2073.860465116279
sg5
F900585.0
sg6
F0.10659714263885704
sg7
F509870.0
sg8
F318607.0
sg9
F50080.0
sg10
F0.01988203103974163
sg11
F83237.0
sg12
F608.7906976744187
sg13
F76547.0
sg14
F0.47810652426443817
sg15
F41.23255813953488
sg16
F1398289.2
sg17
I00
sg18
F746491.2
sg19
F1176.4651162790697
sg20
F235370.0
sg21
F64.8953488372093
ssS'BADUM JAMES P'
p136
(dp137
g3
F284087.5425531915
sg4
F2073.860465116279
sg5
F182466.0
sg6
F0.10659714263885704
sg7
F1201773.0740740742
sg8
F257817.0
sg9
F3486.0
sg10
F0.01988203103974163
sg11
F257817.0
sg12
F608.7906976744187
sg13
F469486.3777777778
sg14
F0.47810652426443817
sg15
F41.23255813953488
sg16
F2228865.816627266
sg17
I00
sg18
F746491.2
sg19
F1176.4651162790697
sg20
F1200658.3529411764
sg21
F64.8953488372093
ssS'HERMANN ROBERT J'
p138
(dp139
g3
F262663.0
sg4
F2073.860465116279
sg5
F1297461.0
sg6
F0.10659714263885704
sg7
F700000.0
sg8
F668132.0
sg9
F48357.0
sg10
F0.01988203103974163
sg11
F187500.0
sg12
F608.7906976744187
sg13
F416441.0
sg14
F0.47810652426443817
sg15
F41.23255813953488
sg16
F1064306.0
sg17
I00
sg18
F150000.0
sg19
F1176.4651162790697
sg20
F480632.0
sg21
F64.8953488372093
ssS'CARTER REBECCA C'
p140
(dp141
g3
F261809.0
sg4
F312.0
sg5
F477557.0
sg6
F1.9333333333333333
sg7
F300000.0
sg8
F3643352.6428571427
sg9
F54352.724137931036
sg10
F0.022435897435897436
sg11
F3218787.3333333335
sg12
F15.0
sg13
F540.0
sg14
F0.709480122324159
sg15
F7.0
sg16
F582456.275862069
sg17
I00
sg18
F75000.0
sg19
F196.0
sg20
F307301.0
sg21
F29.0
ssS'HORTON STANLEY C'
p142
(dp143
g3
F284087.5425531915
sg4
F2350.0
sg5
F3131860.0
sg6
F0.04100652376514446
sg7
F1201773.0740740742
sg8
F7256648.0
sg9
F54352.724137931036
sg10
F0.006382978723404255
sg11
F5210569.0
sg12
F1073.0
sg13
F469486.3777777778
sg14
F0.33099620216184633
sg15
F15.0
sg16
F2177999.0924893348
sg17
I00
sg18
F746491.2
sg19
F1074.0
sg20
F2046079.0
sg21
F44.0
ssS'BOWEN JR RAYMOND M'
p144
(dp145
g3
F278601.0
sg4
F1858.0
sg5
F2669589.0
sg6
F5.185185185185185
sg7
F1350000.0
sg8
F252055.0
sg9
F65907.0
sg10
F0.008073196986006458
sg11
F3218787.3333333335
sg12
F27.0
sg13
F1621.0
sg14
F0.9273209549071618
sg15
F15.0
sg16
F2536987.0
sg17
I01
sg18
F974293.0
sg19
F1593.0
sg20
F252055.0
sg21
F140.0
ssS'FITZGERALD JAY L'
p146
(dp147
g3
F199157.0
sg4
F936.0
sg5
F1414857.0
sg6
F0.0625
sg7
F350000.0
sg8
F1621236.0
sg9
F23870.0
sg10
F0.008547008547008548
sg11
F664461.0
sg12
F16.0
sg13
F285414.0
sg14
F0.7689075630252101
sg15
F8.0
sg16
F1081703.0
sg17
I00
sg18
F556416.0
sg19
F723.0
sg20
F956775.0
sg21
F1.0
ssS'MORAN MICHAEL P'
p148
(dp149
g3
F284087.5425531915
sg4
F672.0
sg5
F2990544.3518518517
sg6
F0.0
sg7
F1201773.0740740742
sg8
F221141.0
sg9
F54352.724137931036
sg10
F0.0
sg11
F59539.0
sg12
F19.0
sg13
F469486.3777777778
sg14
F0.1837916063675832
sg15
F0.0
sg16
F2177999.0924893348
sg17
I00
sg18
F746491.2
sg19
F127.0
sg20
F161602.0
sg21
F0.0
ssS'REDMOND BRIAN L'
p150
(dp151
g3
F96840.0
sg4
F1671.0
sg5
F111529.0
sg6
F0.9230769230769231
sg7
F1201773.0740740742
sg8
F7890324.0
sg9
F14689.0
sg10
F0.029323758228605626
sg11
F7509039.0
sg12
F221.0
sg13
F469486.3777777778
sg14
F0.6955602536997886
sg15
F49.0
sg16
F2030415.274074074
sg17
I00
sg18
F746491.2
sg19
F1063.0
sg20
F381285.0
sg21
F204.0
ssS'BAZELIDES PHILIP J'
p152
(dp153
g3
F80818.0
sg4
F2073.860465116279
sg5
F860136.0
sg6
F0.10659714263885704
sg7
F1201773.0740740742
sg8
F1599641.0
sg9
F54352.724137931036
sg10
F0.01988203103974163
sg11
F1599641.0
sg12
F608.7906976744187
sg13
F874.0
sg14
F0.47810652426443817
sg15
F41.23255813953488
sg16
F1321988.349936143
sg17
I00
sg18
F93750.0
sg19
F1176.4651162790697
sg20
F1200658.3529411764
sg21
F64.8953488372093
ssS'BELDEN TIMOTHY N'
p154
(dp155
g3
F213999.0
sg4
F7991.0
sg5
F5501630.0
sg6
F0.47107438016528924
sg7
F5249999.0
sg8
F1110705.0
sg9
F17355.0
sg10
F0.013515204605180828
sg11
F953136.0
sg12
F484.0
sg13
F210698.0
sg14
F0.6910914454277286
sg15
F108.0
sg16
F6193134.2
sg17
I01
sg18
F746491.2
sg19
F5521.0
sg20
F157569.0
sg21
F228.0
ssS'DURAN WILLIAM D'
p156
(dp157
g3
F210692.0
sg4
F904.0
sg5
F2093263.0
sg6
F8.833333333333334
sg7
F750000.0
sg8
F1640910.0
sg9
F25785.0
sg10
F0.00331858407079646
sg11
F1451869.0
sg12
F12.0
sg13
F1568.0
sg14
F0.7729257641921398
sg15
F3.0
sg16
F2040125.0
sg17
I00
sg18
F1105218.0
sg19
F599.0
sg20
F189041.0
sg21
F106.0
ssS'THORN TERENCE H'
p158
(dp159
g3
F222093.0
sg4
F266.0
sg5
F911453.0
sg6
F0.0
sg7
F1201773.0740740742
sg8
F4817796.0
sg9
F46145.0
sg10
F0.0
sg11
F4452476.0
sg12
F41.0
sg13
F426629.0
sg14
F0.23778501628664495
sg15
F0.0
sg16
F1577721.0740740742
sg17
I00
sg18
F200000.0
sg19
F73.0
sg20
F365320.0
sg21
F0.0
ssS'FASTOW ANDREW S'
p160
(dp161
g3
F440698.0
sg4
F2073.860465116279
sg5
F2424083.0
sg6
F0.10659714263885704
sg7
F1300000.0
sg8
F1794412.0
sg9
F55921.0
sg10
F0.01988203103974163
sg11
F3218787.3333333335
sg12
F608.7906976744187
sg13
F277464.0
sg14
F0.47810652426443817
sg15
F41.23255813953488
sg16
F3420832.0
sg17
I01
sg18
F1736055.0
sg19
F1176.4651162790697
sg20
F1794412.0
sg21
F64.8953488372093
ssS'FOY JOE'
p162
(dp163
g3
F284087.5425531915
sg4
F57.0
sg5
F181755.0
sg6
F0.0
sg7
F1201773.0740740742
sg8
F343434.0
sg9
F54352.724137931036
sg10
F0.0
sg11
F343434.0
sg12
F13.0
sg13
F469486.3777777778
sg14
F0.02857142857142857
sg15
F0.0
sg16
F2177999.0924893348
sg17
I00
sg18
F746491.2
sg19
F2.0
sg20
F1200658.3529411764
sg21
F0.0
ssS'CALGER CHRISTOPHER F'
p164
(dp165
g3
F240189.0
sg4
F2598.0
sg5
F1639297.0
sg6
F1.3819444444444444
sg7
F1250000.0
sg8
F126027.0
sg9
F35818.0
sg10
F0.00962278675904542
sg11
F3218787.3333333335
sg12
F144.0
sg13
F486.0
sg14
F0.8796498905908097
sg15
F25.0
sg16
F1829675.0
sg17
I01
sg18
F375304.0
sg19
F2188.0
sg20
F126027.0
sg21
F199.0
ssS'RICE KENNETH D'
p166
(dp167
g3
F420636.0
sg4
F905.0
sg5
F505050.0
sg6
F2.3333333333333335
sg7
F1750000.0
sg8
F22542539.0
sg9
F46950.0
sg10
F0.004419889502762431
sg11
F19794175.0
sg12
F18.0
sg13
F174839.0
sg14
F0.9859154929577465
sg15
F4.0
sg16
F3740697.0
sg17
I01
sg18
F1617011.0
sg19
F864.0
sg20
F2748364.0
sg21
F42.0
ssS'KAMINSKI WINCENTY J'
p168
(dp169
g3
F275101.0
sg4
F4607.0
sg5
F1086821.0
sg6
F0.002853563474387528
sg7
F400000.0
sg8
F976037.0
sg9
F83585.0
sg10
F0.03711742999782939
sg11
F850010.0
sg12
F14368.0
sg13
F4669.0
sg14
F0.04189723320158103
sg15
F171.0
sg16
F914982.0
sg17
I00
sg18
F323466.0
sg19
F583.0
sg20
F126027.0
sg21
F41.0
ssS'COX DAVID'
p170
(dp171
g3
F314288.0
sg4
F102.0
sg5
F1101393.0
sg6
F0.0
sg7
F800000.0
sg8
F495633.0
sg9
F27861.0
sg10
F0.0392156862745098
sg11
F117551.0
sg12
F33.0
sg13
F494.0
sg14
F0.5555555555555556
sg15
F4.0
sg16
F1832918.2
sg17
I00
sg18
F746491.2
sg19
F71.0
sg20
F378082.0
sg21
F0.0
ssS'OVERDYKE JR JERE C'
p172
(dp173
g3
F94941.0
sg4
F2073.860465116279
sg5
F249787.0
sg6
F0.10659714263885704
sg7
F1201773.0740740742
sg8
F7307594.0
sg9
F18834.0
sg10
F0.01988203103974163
sg11
F5266578.0
sg12
F608.7906976744187
sg13
F176.0
sg14
F0.47810652426443817
sg15
F41.23255813953488
sg16
F1413716.0740740742
sg17
I00
sg18
F135836.0
sg19
F1176.4651162790697
sg20
F2041016.0
sg21
F64.8953488372093
ssS'STABLER FRANK'
p174
(dp175
g3
F239502.0
sg4
F2073.860465116279
sg5
F1112087.0
sg6
F0.10659714263885704
sg7
F500000.0
sg8
F511734.0
sg9
F16514.0
sg10
F0.01988203103974163
sg11
F3218787.3333333335
sg12
F608.7906976744187
sg13
F356071.0
sg14
F0.47810652426443817
sg15
F41.23255813953488
sg16
F1469479.2
sg17
I00
sg18
F746491.2
sg19
F1176.4651162790697
sg20
F511734.0
sg21
F64.8953488372093
ssS'SKILLING JEFFREY K'
p176
(dp177
g3
F1111258.0
sg4
F3627.0
sg5
F8682716.0
sg6
F0.8148148148148148
sg7
F5600000.0
sg8
F26093672.0
sg9
F29336.0
sg10
F0.008271298593879239
sg11
F19250000.0
sg12
F108.0
sg13
F22122.0
sg14
F0.5783132530120482
sg15
F30.0
sg16
F8601922.0
sg17
I01
sg18
F1920000.0
sg19
F2042.0
sg20
F6843672.0
sg21
F88.0
ssS'SHERRICK JEFFREY B'
p178
(dp179
g3
F284087.5425531915
sg4
F613.0
sg5
F2990544.3518518517
sg6
F1.56
sg7
F1201773.0740740742
sg8
F1832468.0
sg9
F54352.724137931036
sg10
F0.02936378466557912
sg11
F1426469.0
sg12
F25.0
sg13
F469486.3777777778
sg14
F1.0031347962382444
sg15
F18.0
sg16
F2177999.0924893348
sg17
I00
sg18
F746491.2
sg19
F583.0
sg20
F405999.0
sg21
F39.0
ssS'GRAY RODNEY'
p180
(dp181
g3
F6615.0
sg4
F2073.860465116279
sg5
F1146658.0
sg6
F0.10659714263885704
sg7
F1201773.0740740742
sg8
F3643352.6428571427
sg9
F54352.724137931036
sg10
F0.01988203103974163
sg11
F3218787.3333333335
sg12
F608.7906976744187
sg13
F680833.0
sg14
F0.47810652426443817
sg15
F41.23255813953488
sg16
F1519660.349936143
sg17
I00
sg18
F365625.0
sg19
F1176.4651162790697
sg20
F1200658.3529411764
sg21
F64.8953488372093
ssS'PICKERING MARK R'
p182
(dp183
g3
F655037.0
sg4
F898.0
sg5
F1386690.0
sg6
F0.1044776119402985
sg7
F300000.0
sg8
F28798.0
sg9
F31653.0
sg10
F0.0
sg11
F28798.0
sg12
F67.0
sg13
F469486.3777777778
sg14
F0.7616580310880829
sg15
F0.0
sg16
F1669875.2
sg17
I00
sg18
F746491.2
sg19
F728.0
sg20
F1200658.3529411764
sg21
F7.0
ssS'UMANOFF ADAM S'
p184
(dp185
g3
F288589.0
sg4
F111.0
sg5
F1130461.0
sg6
F0.6666666666666666
sg7
F788750.0
sg8
F3643352.6428571427
sg9
F53122.0
sg10
F0.0
sg11
F3218787.3333333335
sg12
F18.0
sg13
F469486.3777777778
sg14
F0.4108527131782946
sg15
F0.0
sg16
F1770708.2
sg17
I00
sg18
F746491.2
sg19
F41.0
sg20
F1200658.3529411764
sg21
F12.0
ssS'KEAN STEVEN J'
p186
(dp187
g3
F404338.0
sg4
F12754.0
sg5
F1747522.0
sg6
F0.020713123243083296
sg7
F1000000.0
sg8
F6153642.0
sg9
F41953.0
sg10
F0.03034342167163243
sg11
F2022048.0
sg12
F6759.0
sg13
F1231.0
sg14
F0.21349869317890638
sg15
F387.0
sg16
F1662385.0
sg17
I00
sg18
F300000.0
sg19
F3639.0
sg20
F4131594.0
sg21
F140.0
ssS'FOWLER PEGGY'
p188
(dp189
g3
F284087.5425531915
sg4
F517.0
sg5
F2990544.3518518517
sg6
F0.0
sg7
F1201773.0740740742
sg8
F1884748.0
sg9
F54352.724137931036
sg10
F0.0
sg11
F1324578.0
sg12
F36.0
sg13
F469486.3777777778
sg14
F0.018083182640144666
sg15
F0.0
sg16
F2177999.0924893348
sg17
I00
sg18
F746491.2
sg19
F10.0
sg20
F560170.0
sg21
F0.0
ssS'WASAFF GEORGE'
p190
(dp191
g3
F259996.0
sg4
F400.0
sg5
F1034395.0
sg6
F0.7333333333333333
sg7
F325000.0
sg8
F2056427.0
sg9
F54352.724137931036
sg10
F0.0175
sg11
F1668260.0
sg12
F30.0
sg13
F1425.0
sg14
F0.8511627906976744
sg15
F7.0
sg16
F730643.275862069
sg17
I00
sg18
F200000.0
sg19
F337.0
sg20
F388167.0
sg21
F22.0
ssS'WHITE JR THOMAS E'
p192
(dp193
g3
F317543.0
sg4
F2073.860465116279
sg5
F1934359.0
sg6
F0.10659714263885704
sg7
F450000.0
sg8
F15144123.0
sg9
F81353.0
sg10
F0.01988203103974163
sg11
F1297049.0
sg12
F608.7906976744187
sg13
F1085463.0
sg14
F0.47810652426443817
sg15
F41.23255813953488
sg16
F1432681.2
sg17
I00
sg18
F746491.2
sg19
F1176.4651162790697
sg20
F13847074.0
sg21
F64.8953488372093
ssS'ALLEN PHILLIP K'
p194
(dp195
g3
F201955.0
sg4
F2902.0
sg5
F4484442.0
sg6
F0.0214123006833713
sg7
F4175000.0
sg8
F1729541.0
sg9
F13868.0
sg10
F0.022398345968297727
sg11
F1729541.0
sg12
F2195.0
sg13
F152.0
sg14
F0.2980184422209143
sg15
F65.0
sg16
F4667892.0
sg17
I00
sg18
F304805.0
sg19
F1407.0
sg20
F126027.0
sg21
F47.0
ssS'SHARP VICTORIA T'
p196
(dp197
g3
F248146.0
sg4
F3136.0
sg5
F1576511.0
sg6
F0.17647058823529413
sg7
F600000.0
sg8
F494136.0
sg9
F116337.0
sg10
F0.001913265306122449
sg11
F281073.0
sg12
F136.0
sg13
F2401.0
sg14
F0.76619804400978
sg15
F6.0
sg16
F1153967.0
sg17
I00
sg18
F422158.0
sg19
F2477.0
sg20
F213063.0
sg21
F24.0
ssS'JAEDICKE ROBERT'
p198
(dp199
g3
F284087.5425531915
sg4
F2073.860465116279
sg5
F83750.0
sg6
F0.10659714263885704
sg7
F1201773.0740740742
sg8
F431750.0
sg9
F54352.724137931036
sg10
F0.01988203103974163
sg11
F431750.0
sg12
F608.7906976744187
sg13
F469486.3777777778
sg14
F0.47810652426443817
sg15
F41.23255813953488
sg16
F2177999.0924893348
sg17
I00
sg18
F746491.2
sg19
F1176.4651162790697
sg20
F44093.0
sg21
F64.8953488372093
ssS'BROWN MICHAEL'
p200
(dp201
g3
F284087.5425531915
sg4
F1486.0
sg5
F49288.0
sg6
F0.3170731707317073
sg7
F1201773.0740740742
sg8
F3643352.6428571427
sg9
F49288.0
sg10
F0.0006729475100942127
sg11
F3218787.3333333335
sg12
F41.0
sg13
F469486.3777777778
sg14
F0.5075311067452521
sg15
F1.0
sg16
F2183063.816627266
sg17
I00
sg18
F746491.2
sg19
F761.0
sg20
F1200658.3529411764
sg21
F13.0
ssS'MCCLELLAN GEORGE'
p202
(dp203
g3
F263413.0
sg4
F1744.0
sg5
F1318763.0
sg6
F1.0612244897959184
sg7
F900000.0
sg8
F947861.0
sg9
F228763.0
sg10
F0.0
sg11
F506765.0
sg12
F49.0
sg13
F51587.0
sg14
F0.8482989403234802
sg15
F0.0
sg16
F1681141.2
sg17
I00
sg18
F746491.2
sg19
F1469.0
sg20
F441096.0
sg21
F52.0
ssS'HUGHES JAMES A'
p204
(dp205
g3
F284087.5425531915
sg4
F719.0
sg5
F2990544.3518518517
sg6
F1.0294117647058822
sg7
F1201773.0740740742
sg8
F1118394.0
sg9
F54352.724137931036
sg10
F0.006954102920723227
sg11
F754966.0
sg12
F34.0
sg13
F469486.3777777778
sg14
F0.8353253652058433
sg15
F5.0
sg16
F2177999.0924893348
sg17
I00
sg18
F746491.2
sg19
F589.0
sg20
F363428.0
sg21
F35.0
ssS'REYNOLDS LAWRENCE'
p206
(dp207
g3
F76399.0
sg4
F2073.860465116279
sg5
F394475.0
sg6
F0.10659714263885704
sg7
F100000.0
sg8
F4221891.0
sg9
F8409.0
sg10
F0.01988203103974163
sg11
F4160672.0
sg12
F608.7906976744187
sg13
F202052.0
sg14
F0.47810652426443817
sg15
F41.23255813953488
sg16
F324240.0
sg17
I00
sg18
F156250.0
sg19
F1176.4651162790697
sg20
F201483.0
sg21
F64.8953488372093
ssS'DIMICHELE RICHARD G'
p208
(dp209
g3
F262788.0
sg4
F2073.860465116279
sg5
F2368151.0
sg6
F0.10659714263885704
sg7
F1000000.0
sg8
F8317782.0
sg9
F35812.0
sg10
F0.01988203103974163
sg11
F8191755.0
sg12
F608.7906976744187
sg13
F374689.0
sg14
F0.47810652426443817
sg15
F41.23255813953488
sg16
F1921838.0
sg17
I00
sg18
F694862.0
sg19
F1176.4651162790697
sg20
F126027.0
sg21
F64.8953488372093
ssS'BHATNAGAR SANJAY'
p210
(dp211
g3
F284087.5425531915
sg4
F523.0
sg5
F15456290.0
sg6
F0.0
sg7
F1201773.0740740742
sg8
F3643352.6428571427
sg9
F54352.724137931036
sg10
F0.0019120458891013384
sg11
F2604490.0
sg12
F29.0
sg13
F137864.0
sg14
F0.8405797101449275
sg15
F1.0
sg16
F2177999.0924893348
sg17
I00
sg18
F746491.2
sg19
F463.0
sg20
F-2604490.0
sg21
F0.0
ssS'BUCHANAN HAROLD G'
p212
(dp213
g3
F248017.0
sg4
F1088.0
sg5
F1054637.0
sg6
F0.0
sg7
F500000.0
sg8
F1014505.0
sg9
F600.0
sg10
F0.0
sg11
F825464.0
sg12
F125.0
sg13
F1215.0
sg14
F0.018961253091508656
sg15
F0.0
sg16
F1052222.0
sg17
I00
sg18
F304805.0
sg19
F23.0
sg20
F189041.0
sg21
F0.0
ssS'YEAP SOON'
p214
(dp215
g3
F284087.5425531915
sg4
F2073.860465116279
sg5
F55097.0
sg6
F0.10659714263885704
sg7
F1201773.0740740742
sg8
F192758.0
sg9
F55097.0
sg10
F0.01988203103974163
sg11
F192758.0
sg12
F608.7906976744187
sg13
F469486.3777777778
sg14
F0.47810652426443817
sg15
F41.23255813953488
sg16
F2177254.816627266
sg17
I00
sg18
F746491.2
sg19
F1176.4651162790697
sg20
F1200658.3529411764
sg21
F64.8953488372093
ssS'MURRAY JULIA H'
p216
(dp217
g3
F229284.0
sg4
F2192.0
sg5
F812194.0
sg6
F0.24444444444444444
sg7
F400000.0
sg8
F597461.0
sg9
F57580.0
sg10
F0.0009124087591240876
sg11
F400478.0
sg12
F45.0
sg13
F330.0
sg14
F0.1823871256146625
sg15
F2.0
sg16
F696704.0
sg17
I00
sg18
F125000.0
sg19
F395.0
sg20
F196983.0
sg21
F11.0
ssS'GARLAND C KEVIN'
p218
(dp219
g3
F231946.0
sg4
F209.0
sg5
F1566469.0
sg6
F0.22727272727272727
sg7
F850000.0
sg8
F896153.0
sg9
F48405.0
sg10
F0.1291866028708134
sg11
F636246.0
sg12
F44.0
sg13
F60814.0
sg14
F0.849802371541502
sg15
F27.0
sg16
F1408845.0
sg17
I00
sg18
F375304.0
sg19
F178.0
sg20
F259907.0
sg21
F10.0
ssS'DODSON KEITH'
p220
(dp221
g3
F221003.0
sg4
F176.0
sg5
F319941.0
sg6
F0.7142857142857143
sg7
F70000.0
sg8
F3643352.6428571427
sg9
F28164.0
sg10
F0.017045454545454544
sg11
F3218787.3333333335
sg12
F14.0
sg13
F774.0
sg14
F0.6684210526315789
sg15
F3.0
sg16
F1009330.2
sg17
I00
sg18
F746491.2
sg19
F114.0
sg20
F1200658.3529411764
sg21
F10.0
ssS'YEAGER F SCOTT'
p222
(dp223
g3
F158403.0
sg4
F2073.860465116279
sg5
F360300.0
sg6
F0.10659714263885704
sg7
F1201773.0740740742
sg8
F11884758.0
sg9
F53947.0
sg10
F0.01988203103974163
sg11
F8308552.0
sg12
F608.7906976744187
sg13
F147950.0
sg14
F0.47810652426443817
sg15
F41.23255813953488
sg16
F2052720.2740740739
sg17
I01
sg18
F746491.2
sg19
F1176.4651162790697
sg20
F3576206.0
sg21
F64.8953488372093
ssS'HIRKO JOSEPH'
p224
(dp225
g3
F284087.5425531915
sg4
F2073.860465116279
sg5
F91093.0
sg6
F0.10659714263885704
sg7
F1201773.0740740742
sg8
F30766064.0
sg9
F77978.0
sg10
F0.01988203103974163
sg11
F30766064.0
sg12
F608.7906976744187
sg13
F2856.0
sg14
F0.47810652426443817
sg15
F41.23255813953488
sg16
F2154373.816627266
sg17
I01
sg18
F746491.2
sg19
F1176.4651162790697
sg20
F1200658.3529411764
sg21
F64.8953488372093
ssS'DIETRICH JANET R'
p226
(dp227
g3
F250100.0
sg4
F2572.0
sg5
F1410464.0
sg6
F4.841269841269841
sg7
F600000.0
sg8
F1865087.0
sg9
F3475.0
sg10
F0.005443234836702955
sg11
F1550019.0
sg12
F63.0
sg13
F473.0
sg14
F0.8428842504743833
sg15
F14.0
sg16
F1403041.0
sg17
I00
sg18
F556416.0
sg19
F1902.0
sg20
F315068.0
sg21
F305.0
ssS'DERRICK JR. JAMES V'
p228
(dp229
g3
F492375.0
sg4
F2181.0
sg5
F550981.0
sg6
F0.0704070407040704
sg7
F800000.0
sg8
F8831913.0
sg9
F51124.0
sg10
F0.009170105456212746
sg11
F8831913.0
sg12
F909.0
sg13
F7482.0
sg14
F0.48058252427184467
sg15
F20.0
sg16
F1725251.0
sg17
I00
sg18
F484000.0
sg19
F1401.0
sg20
F1787380.0
sg21
F64.0
ssS'FREVERT MARK A'
p230
(dp231
g3
F1060932.0
sg4
F3275.0
sg5
F17252530.0
sg6
F11.523809523809524
sg7
F2000000.0
sg8
F14622185.0
sg9
F86987.0
sg10
F0.00183206106870229
sg11
F10433518.0
sg12
F21.0
sg13
F7427621.0
sg14
F0.9790655339805825
sg15
F6.0
sg16
F4590956.0
sg17
I00
sg18
F1617011.0
sg19
F2979.0
sg20
F4188667.0
sg21
F242.0
ssS'PAI LOU L'
p232
(dp233
g3
F261879.0
sg4
F2073.860465116279
sg5
F3123383.0
sg6
F0.10659714263885704
sg7
F1000000.0
sg8
F23817930.0
sg9
F32047.0
sg10
F0.01988203103974163
sg11
F15364167.0
sg12
F608.7906976744187
sg13
F1829457.0
sg14
F0.47810652426443817
sg15
F41.23255813953488
sg16
F1976323.2
sg17
I00
sg18
F746491.2
sg19
F1176.4651162790697
sg20
F8453763.0
sg21
F64.8953488372093
ssS'BAY FRANKLIN R'
p234
(dp235
g3
F239671.0
sg4
F2073.860465116279
sg5
F827696.0
sg6
F0.10659714263885704
sg7
F400000.0
sg8
F63014.0
sg9
F129142.0
sg10
F0.01988203103974163
sg11
F3218787.3333333335
sg12
F608.7906976744187
sg13
F69.0
sg14
F0.47810652426443817
sg15
F41.23255813953488
sg16
F1257020.2
sg17
I00
sg18
F746491.2
sg19
F1176.4651162790697
sg20
F145796.0
sg21
F64.8953488372093
ssS'MCCARTY DANNY J'
p236
(dp237
g3
F284087.5425531915
sg4
F1433.0
sg5
F2990544.3518518517
sg6
F0.11627906976744186
sg7
F1201773.0740740742
sg8
F758931.0
sg9
F54352.724137931036
sg10
F0.0013956734124214933
sg11
F664375.0
sg12
F215.0
sg13
F469486.3777777778
sg14
F0.3246359223300971
sg15
F2.0
sg16
F2177999.0924893348
sg17
I00
sg18
F746491.2
sg19
F508.0
sg20
F94556.0
sg21
F25.0
ssS'FALLON JAMES B'
p238
(dp239
g3
F304588.0
sg4
F1755.0
sg5
F3676340.0
sg6
F0.56
sg7
F2500000.0
sg8
F2332399.0
sg9
F95924.0
sg10
F0.021082621082621083
sg11
F940257.0
sg12
F75.0
sg13
F401481.0
sg14
F0.919672131147541
sg15
F37.0
sg16
F3083011.0
sg17
I00
sg18
F374347.0
sg19
F1604.0
sg20
F1392142.0
sg21
F42.0
ssS'KOENIG MARK E'
p240
(dp241
g3
F309946.0
sg4
F2374.0
sg5
F1587421.0
sg6
F0.8688524590163934
sg7
F700000.0
sg8
F1920055.0
sg9
F127017.0
sg10
F0.006318449873631003
sg11
F671737.0
sg12
F61.0
sg13
F150458.0
sg14
F0.9605749486652977
sg15
F15.0
sg16
F1182929.0
sg17
I01
sg18
F300000.0
sg19
F2271.0
sg20
F1248318.0
sg21
F53.0
ssS'IZZO LAWRENCE L'
p242
(dp243
g3
F85274.0
sg4
F496.0
sg5
F1979596.0
sg6
F1.4736842105263157
sg7
F1201773.0740740742
sg8
F5819980.0
sg9
F28093.0
sg10
F0.010080645161290322
sg11
F2165172.0
sg12
F19.0
sg13
F1553729.0
sg14
F0.912621359223301
sg15
F5.0
sg16
F1571454.0740740742
sg17
I00
sg18
F312500.0
sg19
F437.0
sg20
F3654808.0
sg21
F28.0
ssS'TILNEY ELIZABETH A'
p244
(dp245
g3
F247338.0
sg4
F460.0
sg5
F399393.0
sg6
F0.5263157894736842
sg7
F300000.0
sg8
F1168042.0
sg9
F54352.724137931036
sg10
F0.02391304347826087
sg11
F591250.0
sg12
F19.0
sg13
F152055.0
sg14
F0.8350730688935282
sg15
F11.0
sg16
F767985.275862069
sg17
I00
sg18
F275000.0
sg19
F379.0
sg20
F576792.0
sg21
F10.0
ssS'MARTIN AMANDA K'
p246
(dp247
g3
F349487.0
sg4
F1522.0
sg5
F8407016.0
sg6
F0.034782608695652174
sg7
F1201773.0740740742
sg8
F2070306.0
sg9
F8211.0
sg10
F0.0
sg11
F2070306.0
sg12
F230.0
sg13
F2818454.0
sg14
F0.2768264840182648
sg15
F0.0
sg16
F6688483.074074075
sg17
I00
sg18
F5145434.0
sg19
F477.0
sg20
F1200658.3529411764
sg21
F8.0
ssS'BUY RICHARD B'
p248
(dp249
g3
F330546.0
sg4
F3523.0
sg5
F2355702.0
sg6
F0.14814814814814814
sg7
F900000.0
sg8
F3444470.0
sg9
F54352.724137931036
sg10
F0.02015327845586148
sg11
F2542813.0
sg12
F1053.0
sg13
F400572.0
sg14
F0.5594405594405595
sg15
F71.0
sg16
F1946055.2758620689
sg17
I00
sg18
F769862.0
sg19
F2333.0
sg20
F901657.0
sg21
F156.0
ssS'CAUSEY RICHARD A'
p250
(dp251
g3
F415189.0
sg4
F1892.0
sg5
F1868758.0
sg6
F1.183673469387755
sg7
F1000000.0
sg8
F2502063.0
sg9
F30674.0
sg10
F0.006342494714587738
sg11
F3218787.3333333335
sg12
F49.0
sg13
F307895.0
sg14
F0.8526532715095312
sg15
F12.0
sg16
F1734515.0
sg17
I01
sg18
F350000.0
sg19
F1585.0
sg20
F2502063.0
sg21
F58.0
ssS'TAYLOR MITCHELL S'
p252
(dp253
g3
F265214.0
sg4
F533.0
sg5
F1092663.0
sg6
F0.0
sg7
F600000.0
sg8
F3745048.0
sg9
F54352.724137931036
sg10
F0.0
sg11
F3181250.0
sg12
F29.0
sg13
F469486.3777777778
sg14
F0.5338078291814946
sg15
F0.0
sg16
F1557352.4758620688
sg17
I00
sg18
F746491.2
sg19
F300.0
sg20
F563798.0
sg21
F0.0
ssS'DONAHUE JR JEFFREY M'
p254
(dp255
g3
F278601.0
sg4
F865.0
sg5
F875760.0
sg6
F8.545454545454545
sg7
F800000.0
sg8
F1080988.0
sg9
F96268.0
sg10
F0.012716763005780347
sg11
F765920.0
sg12
F22.0
sg13
F891.0
sg14
F1.0947012401352876
sg15
F11.0
sg16
F1728824.2
sg17
I00
sg18
F746491.2
sg19
F772.0
sg20
F315068.0
sg21
F188.0
ssS'GLISAN JR BEN F'
p256
(dp257
g3
F274975.0
sg4
F873.0
sg5
F1272284.0
sg6
F3.25
sg7
F600000.0
sg8
F778546.0
sg9
F125978.0
sg10
F0.006872852233676976
sg11
F384728.0
sg12
F16.0
sg13
F200308.0
sg14
F1.048368953880765
sg15
F6.0
sg16
F820020.0
sg17
I01
sg18
F71023.0
sg19
F874.0
sg20
F393818.0
sg21
F52.0
ss.