(dp0
S'METTS MARK'
p1
(dp2
S'total_payments'
p3
F1061827.0
sS'related_to_poi'
p4
F0.8863636363636364
sS'total_stock_value'
p5
F585062.0
sS'Effective Salary'
p6
F1617980.2
sS'exercised_stock_options'
p7
F3218787.3333333335
sS'poi'
p8
I00
sS'long_term_incentive'
p9
F746491.2
sS'restricted_stock'
p10
F585062.0
ssS'BAXTER JOHN C'
p11
(dp12
g3
F5634343.0
sg4
F0.47810652426443817
sg5
F10623258.0
sg6
F3041957.0
sg7
F6680544.0
sg8
I00
sg9
F1586055.0
sg10
F3942714.0
ssS'ELLIOTT STEVEN'
p13
(dp14
g3
F211725.0
sg4
F0.47810652426443817
sg5
F6678735.0
sg6
F1188880.2
sg7
F4890344.0
sg8
I00
sg9
F746491.2
sg10
F1788391.0
ssS'CORDES WILLIAM R'
p15
(dp16
g3
F2990544.3518518517
sg4
F0.08762886597938144
sg5
F1038185.0
sg6
F2177999.0924893348
sg7
F651850.0
sg8
I00
sg9
F746491.2
sg10
F386335.0
ssS'HANNON KEVIN P'
p17
(dp18
g3
F288682.0
sg4
F1.0102135561745589
sg5
F6391065.0
sg6
F3326265.0
sg7
F5538001.0
sg8
I01
sg9
F1617011.0
sg10
F853064.0
ssS'MORDAUNT KRISTINA M'
p19
(dp20
g3
F628522.0
sg4
F0.47810652426443817
sg5
F208510.0
sg6
F1303566.2
sg7
F3218787.3333333335
sg8
I00
sg9
F746491.2
sg10
F208510.0
ssS'MEYER ROCKFORD G'
p21
(dp22
g3
F1848227.0
sg4
F0.08461538461538462
sg5
F955873.0
sg6
F2177999.0924893348
sg7
F493489.0
sg8
I00
sg9
F746491.2
sg10
F462384.0
ssS'MCMAHON JEFFREY'
p23
(dp24
g3
F4099771.0
sg4
F0.9621306699958385
sg5
F1662855.0
sg6
F3528202.0
sg7
F1104054.0
sg8
I00
sg9
F694862.0
sg10
F558801.0
ssS'HAEDICKE MARK E'
p25
(dp26
g3
F3859065.0
sg4
F0.35092436974789915
sg5
F803094.0
sg6
F2431302.0
sg7
F608750.0
sg8
I00
sg9
F983346.0
sg10
F524169.0
ssS'PIPER GREGORY F'
p27
(dp28
g3
F1737629.0
sg4
F0.5828767123287671
sg5
F880290.0
sg6
F1300525.2
sg7
F880290.0
sg8
I00
sg9
F746491.2
sg10
F409554.0
ssS'HUMPHREY GENE E'
p29
(dp30
g3
F3100224.0
sg4
F1.006896551724138
sg5
F2282768.0
sg6
F2073994.274074074
sg7
F2282768.0
sg8
I00
sg9
F746491.2
sg10
F1200658.3529411764
ssS'BLACHMAN JEREMY M'
p31
(dp32
g3
F2014835.0
sg4
F0.9453595821615106
sg5
F954354.0
sg6
F1846147.0
sg7
F765313.0
sg8
I00
sg9
F831809.0
sg10
F189041.0
ssS'SUNDE MARTIN'
p33
(dp34
g3
F1545059.0
sg4
F0.9739292364990689
sg5
F698920.0
sg6
F1379584.2758620689
sg7
F3218787.3333333335
sg8
I00
sg9
F476451.0
sg10
F698920.0
ssS'GIBBS DANA R'
p35
(dp36
g3
F966522.0
sg4
F0.1270718232044199
sg5
F2218275.0
sg6
F1893419.8924893346
sg7
F2218275.0
sg8
I00
sg9
F461912.0
sg10
F1200658.3529411764
ssS'COLWELL WESLEY'
p37
(dp38
g3
F1490344.0
sg4
F0.7691879866518354
sg5
F698242.0
sg6
F2218519.2
sg7
F3218787.3333333335
sg8
I01
sg9
F746491.2
sg10
F698242.0
ssS'MULLER MARK S'
p39
(dp40
g3
F3202070.0
sg4
F0.8289473684210527
sg5
F1416848.0
sg6
F3022846.275862069
sg7
F1056320.0
sg8
I00
sg9
F1725545.0
sg10
F360528.0
ssS'JACKSON CHARLENE R'
p41
(dp42
g3
F551174.0
sg4
F0.5127388535031847
sg5
F725735.0
sg6
F1274868.2
sg7
F185063.0
sg8
I00
sg9
F746491.2
sg10
F540672.0
ssS'WESTFAHL RICHARD K'
p43
(dp44
g3
F762135.0
sg4
F0.47810652426443817
sg5
F384930.0
sg6
F1469838.0740740742
sg7
F3218787.3333333335
sg8
I00
sg9
F256191.0
sg10
F384930.0
ssS'WALTERS GARETH W'
p45
(dp46
g3
F87410.0
sg4
F0.47810652426443817
sg5
F1030329.0
sg6
F2198566.816627266
sg7
F1030329.0
sg8
I00
sg9
F746491.2
sg10
F1200658.3529411764
ssS'WALLS JR ROBERT H'
p47
(dp48
g3
F1798780.0
sg4
F0.2839657282741738
sg5
F5898997.0
sg6
F1696906.0
sg7
F4346544.0
sg8
I00
sg9
F540751.0
sg10
F1552453.0
ssS'KITCHEN LOUISE'
p49
(dp50
g3
F3471141.0
sg4
F0.4100468454101465
sg5
F547143.0
sg6
F4112159.2
sg7
F81042.0
sg8
I00
sg9
F746491.2
sg10
F466101.0
ssS'PRENTICE JAMES'
p51
(dp52
g3
F564348.0
sg4
F0.47810652426443817
sg5
F1095040.0
sg6
F2177999.0924893348
sg7
F886231.0
sg8
I00
sg9
F746491.2
sg10
F208809.0
ssS'SHANKMAN JEFFREY A'
p53
(dp54
g3
F3038702.0
sg4
F0.3231108098949509
sg5
F2072035.0
sg6
F2679553.0
sg7
F1441898.0
sg8
I00
sg9
F554422.0
sg10
F630137.0
ssS'BERGSIEKER RICHARD P'
p55
(dp56
g3
F618850.0
sg4
F0.5361990950226244
sg5
F659249.0
sg6
F558997.0
sg7
F3218787.3333333335
sg8
I00
sg9
F180250.0
sg10
F659249.0
ssS'BIBI PHILIPPE A'
p57
(dp58
g3
F2047593.0
sg4
F0.8299939283545841
sg5
F1843816.0
sg6
F1544787.0
sg7
F1465734.0
sg8
I00
sg9
F369721.0
sg10
F378082.0
ssS'PIRO JIM'
p59
(dp60
g3
F2990544.3518518517
sg4
F0.05405405405405406
sg5
F47304.0
sg6
F2177999.0924893348
sg7
F3218787.3333333335
sg8
I00
sg9
F746491.2
sg10
F47304.0
ssS'RIEKER PAULA H'
p61
(dp62
g3
F1099100.0
sg4
F0.951063829787234
sg5
F1918887.0
sg6
F1662421.2
sg7
F1635238.0
sg8
I01
sg9
F746491.2
sg10
F283649.0
ssS'BECK SALLY W'
p63
(dp64
g3
F969068.0
sg4
F0.2718305026591182
sg5
F126027.0
sg6
F1640649.2
sg7
F3218787.3333333335
sg8
I00
sg9
F746491.2
sg10
F126027.0
ssS'HAUG DAVID L'
p65
(dp66
g3
F475.0
sg4
F0.8141891891891891
sg5
F2217299.0
sg6
F2231876.816627266
sg7
F3218787.3333333335
sg8
I00
sg9
F746491.2
sg10
F2217299.0
ssS'ECHOLS JOHN B'
p67
(dp68
g3
F2692324.0
sg4
F0.47810652426443817
sg5
F1008941.0
sg6
F2595489.0
sg7
F601438.0
sg8
I00
sg9
F2234774.0
sg10
F407503.0
ssS'HICKERSON GARY J'
p69
(dp70
g3
F2081796.0
sg4
F0.6985894580549369
sg5
F441096.0
sg6
F1882162.0
sg7
F3218787.3333333335
sg8
I00
sg9
F69223.0
sg10
F441096.0
ssS'LEWIS RICHARD'
p71
(dp72
g3
F2990544.3518518517
sg4
F0.7658486707566462
sg5
F850477.0
sg6
F2177999.0924893348
sg7
F850477.0
sg8
I00
sg9
F746491.2
sg10
F1200658.3529411764
ssS'HAYES ROBERT E'
p73
(dp74
g3
F7961.0
sg4
F0.12790697674418605
sg5
F151418.0
sg6
F2177999.0924893348
sg7
F3218787.3333333335
sg8
I00
sg9
F746491.2
sg10
F151418.0
ssS'KOPPER MICHAEL J'
p75
(dp76
g3
F2652612.0
sg4
F0.47810652426443817
sg5
F985032.0
sg6
F1508842.0
sg7
F3218787.3333333335
sg8
I01
sg9
F602671.0
sg10
F985032.0
ssS'LEFF DANIEL P'
p77
(dp78
g3
F2664228.0
sg4
F0.9542461005199306
sg5
F360528.0
sg6
F2606792.275862069
sg7
F3218787.3333333335
sg8
I00
sg9
F1387399.0
sg10
F360528.0
ssS'LAVORATO JOHN J'
p79
(dp80
g3
F10425757.0
sg4
F0.4978667208451849
sg5
F5167144.0
sg6
F10325131.0
sg7
F4158995.0
sg8
I00
sg9
F2035380.0
sg10
F1008149.0
ssS'BERBERIAN DAVID'
p81
(dp82
g3
F228474.0
sg4
F0.47810652426443817
sg5
F2493616.0
sg6
F2152954.274074074
sg7
F1624396.0
sg8
I00
sg9
F746491.2
sg10
F869220.0
ssS'DETMERING TIMOTHY J'
p83
(dp84
g3
F1204583.0
sg4
F0.47810652426443817
sg5
F2027865.0
sg6
F998902.0
sg7
F2027865.0
sg8
I00
sg9
F415657.0
sg10
F315068.0
ssS'POWERS WILLIAM'
p85
(dp86
g3
F2990544.3518518517
sg4
F0.017673048600883652
sg5
F3643352.6428571427
sg6
F2177999.0924893348
sg7
F3218787.3333333335
sg8
I00
sg9
F746491.2
sg10
F1200658.3529411764
ssS'GOLD JOSEPH'
p87
(dp88
g3
F2146973.0
sg4
F0.47810652426443817
sg5
F877611.0
sg6
F1273332.2758620689
sg7
F436515.0
sg8
I00
sg9
F304805.0
sg10
F441096.0
ssS'BANNANTINE JAMES M'
p89
(dp90
g3
F916197.0
sg4
F0.8470588235294118
sg5
F5243487.0
sg6
F1892440.274074074
sg7
F4046157.0
sg8
I00
sg9
F746491.2
sg10
F1757552.0
ssS'SHAPIRO RICHARD S'
p91
(dp92
g3
F1057548.0
sg4
F0.28513810804204354
sg5
F987001.0
sg6
F1527800.2
sg7
F607837.0
sg8
I00
sg9
F746491.2
sg10
F379164.0
ssS'SHERRIFF JOHN R'
p93
(dp94
g3
F4335388.0
sg4
F0.656907593778591
sg5
F3128982.0
sg6
F2428849.275862069
sg7
F1835558.0
sg8
I00
sg9
F554422.0
sg10
F1293424.0
ssS'SHELBY REX'
p95
(dp96
g3
F2003885.0
sg4
F0.44696969696969696
sg5
F2493616.0
sg6
F1135451.2
sg7
F1624396.0
sg8
I01
sg9
F746491.2
sg10
F869220.0
ssS'DEFFNER JOSEPH M'
p97
(dp98
g3
F1208649.0
sg4
F0.8515228426395939
sg5
F159211.0
sg6
F1099844.0
sg7
F17378.0
sg8
I00
sg9
F335349.0
sg10
F141833.0
ssS'KISHKILL JOSEPH G'
p99
(dp100
g3
F704896.0
sg4
F0.47810652426443817
sg5
F1034346.0
sg6
F2006175.2740740739
sg7
F3218787.3333333335
sg8
I00
sg9
F746491.2
sg10
F1034346.0
ssS'WHALLEY LAWRENCE G'
p101
(dp102
g3
F4677574.0
sg4
F0.6281368821292775
sg5
F6079137.0
sg6
F4260872.0
sg7
F3282960.0
sg8
I00
sg9
F808346.0
sg10
F2796177.0
ssS'HAYSLETT RODERICK J'
p103
(dp104
g3
F2990544.3518518517
sg4
F0.17358490566037735
sg5
F346663.0
sg6
F2177999.0924893348
sg7
F3218787.3333333335
sg8
I00
sg9
F746491.2
sg10
F346663.0
ssS'MCCONNELL MICHAEL S'
p105
(dp106
g3
F2101364.0
sg4
F0.4076758359413606
sg5
F3101279.0
sg6
F1938096.0
sg7
F1623010.0
sg8
I00
sg9
F554422.0
sg10
F1478269.0
ssS'DELAINEY DAVID W'
p107
(dp108
g3
F4747979.0
sg4
F0.4498539435248296
sg5
F3614261.0
sg6
F4573970.0
sg7
F2291113.0
sg8
I01
sg9
F1294981.0
sg10
F1323148.0
ssS'SULLIVAN-SHAKLOVITZ COLLEEN'
p109
(dp110
g3
F999356.0
sg4
F0.47810652426443817
sg5
F1362375.0
sg6
F762848.275862069
sg7
F1362375.0
sg8
I00
sg9
F554422.0
sg10
F1200658.3529411764
ssS'LINDHOLM TOD A'
p111
(dp112
g3
F875889.0
sg4
F0.47810652426443817
sg5
F3064208.0
sg6
F553730.0
sg7
F2549361.0
sg8
I00
sg9
F175000.0
sg10
F514847.0
ssS'LAY KENNETH L'
p113
(dp114
g3
F103559793.0
sg4
F0.5917846368066837
sg5
F49110078.0
sg6
F11572489.0
sg7
F34348384.0
sg8
I01
sg9
F3600000.0
sg10
F14761694.0
ssS'BUTTS ROBERT H'
p115
(dp116
g3
F1271582.0
sg4
F0.47810652426443817
sg5
F417619.0
sg6
F1177106.0
sg7
F3218787.3333333335
sg8
I00
sg9
F175000.0
sg10
F417619.0
ssS'OLSON CINDY K'
p117
(dp118
g3
F1321557.0
sg4
F0.720873786407767
sg5
F2606763.0
sg6
F1115287.0
sg7
F1637034.0
sg8
I00
sg9
F100000.0
sg10
F969729.0
ssS'MCDONALD REBECCA'
p119
(dp120
g3
F2990544.3518518517
sg4
F0.8544652701212789
sg5
F1691366.0
sg6
F2177999.0924893348
sg7
F757301.0
sg8
I00
sg9
F746491.2
sg10
F934065.0
ssS'CUMBERLAND MICHAEL S'
p121
(dp122
g3
F807956.0
sg4
F0.47810652426443817
sg5
F207940.0
sg6
F762555.0
sg7
F3218787.3333333335
sg8
I00
sg9
F275000.0
sg10
F207940.0
ssS'GAHN ROBERT S'
p123
(dp124
g3
F900585.0
sg4
F0.47810652426443817
sg5
F318607.0
sg6
F1398289.2
sg7
F83237.0
sg8
I00
sg9
F746491.2
sg10
F235370.0
ssS'BADUM JAMES P'
p125
(dp126
g3
F182466.0
sg4
F0.47810652426443817
sg5
F257817.0
sg6
F2228865.816627266
sg7
F257817.0
sg8
I00
sg9
F746491.2
sg10
F1200658.3529411764
ssS'HERMANN ROBERT J'
p127
(dp128
g3
F1297461.0
sg4
F0.47810652426443817
sg5
F668132.0
sg6
F1064306.0
sg7
F187500.0
sg8
I00
sg9
F150000.0
sg10
F480632.0
ssS'CARTER REBECCA C'
p129
(dp130
g3
F477557.0
sg4
F0.709480122324159
sg5
F3643352.6428571427
sg6
F582456.275862069
sg7
F3218787.3333333335
sg8
I00
sg9
F75000.0
sg10
F307301.0
ssS'HORTON STANLEY C'
p131
(dp132
g3
F3131860.0
sg4
F0.33099620216184633
sg5
F7256648.0
sg6
F2177999.0924893348
sg7
F5210569.0
sg8
I00
sg9
F746491.2
sg10
F2046079.0
ssS'BOWEN JR RAYMOND M'
p133
(dp134
g3
F2669589.0
sg4
F0.9273209549071618
sg5
F252055.0
sg6
F2536987.0
sg7
F3218787.3333333335
sg8
I01
sg9
F974293.0
sg10
F252055.0
ssS'FITZGERALD JAY L'
p135
(dp136
g3
F1414857.0
sg4
F0.7689075630252101
sg5
F1621236.0
sg6
F1081703.0
sg7
F664461.0
sg8
I00
sg9
F556416.0
sg10
F956775.0
ssS'MORAN MICHAEL P'
p137
(dp138
g3
F2990544.3518518517
sg4
F0.1837916063675832
sg5
F221141.0
sg6
F2177999.0924893348
sg7
F59539.0
sg8
I00
sg9
F746491.2
sg10
F161602.0
ssS'REDMOND BRIAN L'
p139
(dp140
g3
F111529.0
sg4
F0.6955602536997886
sg5
F7890324.0
sg6
F2030415.274074074
sg7
F7509039.0
sg8
I00
sg9
F746491.2
sg10
F381285.0
ssS'BAZELIDES PHILIP J'
p141
(dp142
g3
F860136.0
sg4
F0.47810652426443817
sg5
F1599641.0
sg6
F1321988.349936143
sg7
F1599641.0
sg8
I00
sg9
F93750.0
sg10
F1200658.3529411764
ssS'BELDEN TIMOTHY N'
p143
(dp144
g3
F5501630.0
sg4
F0.6910914454277286
sg5
F1110705.0
sg6
F6193134.2
sg7
F953136.0
sg8
I01
sg9
F746491.2
sg10
F157569.0
ssS'DURAN WILLIAM D'
p145
(dp146
g3
F2093263.0
sg4
F0.7729257641921398
sg5
F1640910.0
sg6
F2040125.0
sg7
F1451869.0
sg8
I00
sg9
F1105218.0
sg10
F189041.0
ssS'THORN TERENCE H'
p147
(dp148
g3
F911453.0
sg4
F0.23778501628664495
sg5
F4817796.0
sg6
F1577721.0740740742
sg7
F4452476.0
sg8
I00
sg9
F200000.0
sg10
F365320.0
ssS'FASTOW ANDREW S'
p149
(dp150
g3
F2424083.0
sg4
F0.47810652426443817
sg5
F1794412.0
sg6
F3420832.0
sg7
F3218787.3333333335
sg8
I01
sg9
F1736055.0
sg10
F1794412.0
ssS'FOY JOE'
p151
(dp152
g3
F181755.0
sg4
F0.02857142857142857
sg5
F343434.0
sg6
F2177999.0924893348
sg7
F343434.0
sg8
I00
sg9
F746491.2
sg10
F1200658.3529411764
ssS'CALGER CHRISTOPHER F'
p153
(dp154
g3
F1639297.0
sg4
F0.8796498905908097
sg5
F126027.0
sg6
F1829675.0
sg7
F3218787.3333333335
sg8
I01
sg9
F375304.0
sg10
F126027.0
ssS'RICE KENNETH D'
p155
(dp156
g3
F505050.0
sg4
F0.9859154929577465
sg5
F22542539.0
sg6
F3740697.0
sg7
F19794175.0
sg8
I01
sg9
F1617011.0
sg10
F2748364.0
ssS'KAMINSKI WINCENTY J'
p157
(dp158
g3
F1086821.0
sg4
F0.04189723320158103
sg5
F976037.0
sg6
F914982.0
sg7
F850010.0
sg8
I00
sg9
F323466.0
sg10
F126027.0
ssS'COX DAVID'
p159
(dp160
g3
F1101393.0
sg4
F0.5555555555555556
sg5
F495633.0
sg6
F1832918.2
sg7
F117551.0
sg8
I00
sg9
F746491.2
sg10
F378082.0
ssS'OVERDYKE JR JERE C'
p161
(dp162
g3
F249787.0
sg4
F0.47810652426443817
sg5
F7307594.0
sg6
F1413716.0740740742
sg7
F5266578.0
sg8
I00
sg9
F135836.0
sg10
F2041016.0
ssS'STABLER FRANK'
p163
(dp164
g3
F1112087.0
sg4
F0.47810652426443817
sg5
F511734.0
sg6
F1469479.2
sg7
F3218787.3333333335
sg8
I00
sg9
F746491.2
sg10
F511734.0
ssS'SKILLING JEFFREY K'
p165
(dp166
g3
F8682716.0
sg4
F0.5783132530120482
sg5
F26093672.0
sg6
F8601922.0
sg7
F19250000.0
sg8
I01
sg9
F1920000.0
sg10
F6843672.0
ssS'SHERRICK JEFFREY B'
p167
(dp168
g3
F2990544.3518518517
sg4
F1.0031347962382444
sg5
F1832468.0
sg6
F2177999.0924893348
sg7
F1426469.0
sg8
I00
sg9
F746491.2
sg10
F405999.0
ssS'GRAY RODNEY'
p169
(dp170
g3
F1146658.0
sg4
F0.47810652426443817
sg5
F3643352.6428571427
sg6
F1519660.349936143
sg7
F3218787.3333333335
sg8
I00
sg9
F365625.0
sg10
F1200658.3529411764
ssS'PICKERING MARK R'
p171
(dp172
g3
F1386690.0
sg4
F0.7616580310880829
sg5
F28798.0
sg6
F1669875.2
sg7
F28798.0
sg8
I00
sg9
F746491.2
sg10
F1200658.3529411764
ssS'UMANOFF ADAM S'
p173
(dp174
g3
F1130461.0
sg4
F0.4108527131782946
sg5
F3643352.6428571427
sg6
F1770708.2
sg7
F3218787.3333333335
sg8
I00
sg9
F746491.2
sg10
F1200658.3529411764
ssS'KEAN STEVEN J'
p175
(dp176
g3
F1747522.0
sg4
F0.21349869317890638
sg5
F6153642.0
sg6
F1662385.0
sg7
F2022048.0
sg8
I00
sg9
F300000.0
sg10
F4131594.0
ssS'FOWLER PEGGY'
p177
(dp178
g3
F2990544.3518518517
sg4
F0.018083182640144666
sg5
F1884748.0
sg6
F2177999.0924893348
sg7
F1324578.0
sg8
I00
sg9
F746491.2
sg10
F560170.0
ssS'WASAFF GEORGE'
p179
(dp180
g3
F1034395.0
sg4
F0.8511627906976744
sg5
F2056427.0
sg6
F730643.275862069
sg7
F1668260.0
sg8
I00
sg9
F200000.0
sg10
F388167.0
ssS'WHITE JR THOMAS E'
p181
(dp182
g3
F1934359.0
sg4
F0.47810652426443817
sg5
F15144123.0
sg6
F1432681.2
sg7
F1297049.0
sg8
I00
sg9
F746491.2
sg10
F13847074.0
ssS'ALLEN PHILLIP K'
p183
(dp184
g3
F4484442.0
sg4
F0.2980184422209143
sg5
F1729541.0
sg6
F4667892.0
sg7
F1729541.0
sg8
I00
sg9
F304805.0
sg10
F126027.0
ssS'SHARP VICTORIA T'
p185
(dp186
g3
F1576511.0
sg4
F0.76619804400978
sg5
F494136.0
sg6
F1153967.0
sg7
F281073.0
sg8
I00
sg9
F422158.0
sg10
F213063.0
ssS'JAEDICKE ROBERT'
p187
(dp188
g3
F83750.0
sg4
F0.47810652426443817
sg5
F431750.0
sg6
F2177999.0924893348
sg7
F431750.0
sg8
I00
sg9
F746491.2
sg10
F44093.0
ssS'BROWN MICHAEL'
p189
(dp190
g3
F49288.0
sg4
F0.5075311067452521
sg5
F3643352.6428571427
sg6
F2183063.816627266
sg7
F3218787.3333333335
sg8
I00
sg9
F746491.2
sg10
F1200658.3529411764
ssS'MCCLELLAN GEORGE'
p191
(dp192
g3
F1318763.0
sg4
F0.8482989403234802
sg5
F947861.0
sg6
F1681141.2
sg7
F506765.0
sg8
I00
sg9
F746491.2
sg10
F441096.0
ssS'HUGHES JAMES A'
p193
(dp194
g3
F2990544.3518518517
sg4
F0.8353253652058433
sg5
F1118394.0
sg6
F2177999.0924893348
sg7
F754966.0
sg8
I00
sg9
F746491.2
sg10
F363428.0
ssS'REYNOLDS LAWRENCE'
p195
(dp196
g3
F394475.0
sg4
F0.47810652426443817
sg5
F4221891.0
sg6
F324240.0
sg7
F4160672.0
sg8
I00
sg9
F156250.0
sg10
F201483.0
ssS'DIMICHELE RICHARD G'
p197
(dp198
g3
F2368151.0
sg4
F0.47810652426443817
sg5
F8317782.0
sg6
F1921838.0
sg7
F8191755.0
sg8
I00
sg9
F694862.0
sg10
F126027.0
ssS'BHATNAGAR SANJAY'
p199
(dp200
g3
F15456290.0
sg4
F0.8405797101449275
sg5
F3643352.6428571427
sg6
F2177999.0924893348
sg7
F2604490.0
sg8
I00
sg9
F746491.2
sg10
F-2604490.0
ssS'BUCHANAN HAROLD G'
p201
(dp202
g3
F1054637.0
sg4
F0.018961253091508656
sg5
F1014505.0
sg6
F1052222.0
sg7
F825464.0
sg8
I00
sg9
F304805.0
sg10
F189041.0
ssS'YEAP SOON'
p203
(dp204
g3
F55097.0
sg4
F0.47810652426443817
sg5
F192758.0
sg6
F2177254.816627266
sg7
F192758.0
sg8
I00
sg9
F746491.2
sg10
F1200658.3529411764
ssS'MURRAY JULIA H'
p205
(dp206
g3
F812194.0
sg4
F0.1823871256146625
sg5
F597461.0
sg6
F696704.0
sg7
F400478.0
sg8
I00
sg9
F125000.0
sg10
F196983.0
ssS'GARLAND C KEVIN'
p207
(dp208
g3
F1566469.0
sg4
F0.849802371541502
sg5
F896153.0
sg6
F1408845.0
sg7
F636246.0
sg8
I00
sg9
F375304.0
sg10
F259907.0
ssS'DODSON KEITH'
p209
(dp210
g3
F319941.0
sg4
F0.6684210526315789
sg5
F3643352.6428571427
sg6
F1009330.2
sg7
F3218787.3333333335
sg8
I00
sg9
F746491.2
sg10
F1200658.3529411764
ssS'YEAGER F SCOTT'
p211
(dp212
g3
F360300.0
sg4
F0.47810652426443817
sg5
F11884758.0
sg6
F2052720.2740740739
sg7
F8308552.0
sg8
I01
sg9
F746491.2
sg10
F3576206.0
ssS'HIRKO JOSEPH'
p213
(dp214
g3
F91093.0
sg4
F0.47810652426443817
sg5
F30766064.0
sg6
F2154373.816627266
sg7
F30766064.0
sg8
I01
sg9
F746491.2
sg10
F1200658.3529411764
ssS'DIETRICH JANET R'
p215
(dp216
g3
F1410464.0
sg4
F0.8428842504743833
sg5
F1865087.0
sg6
F1403041.0
sg7
F1550019.0
sg8
I00
sg9
F556416.0
sg10
F315068.0
ssS'DERRICK JR. JAMES V'
p217
(dp218
g3
F550981.0
sg4
F0.48058252427184467
sg5
F8831913.0
sg6
F1725251.0
sg7
F8831913.0
sg8
I00
sg9
F484000.0
sg10
F1787380.0
ssS'FREVERT MARK A'
p219
(dp220
g3
F17252530.0
sg4
F0.9790655339805825
sg5
F14622185.0
sg6
F4590956.0
sg7
F10433518.0
sg8
I00
sg9
F1617011.0
sg10
F4188667.0
ssS'PAI LOU L'
p221
(dp222
g3
F3123383.0
sg4
F0.47810652426443817
sg5
F23817930.0
sg6
F1976323.2
sg7
F15364167.0
sg8
I00
sg9
F746491.2
sg10
F8453763.0
ssS'BAY FRANKLIN R'
p223
(dp224
g3
F827696.0
sg4
F0.47810652426443817
sg5
F63014.0
sg6
F1257020.2
sg7
F3218787.3333333335
sg8
I00
sg9
F746491.2
sg10
F145796.0
ssS'MCCARTY DANNY J'
p225
(dp226
g3
F2990544.3518518517
sg4
F0.3246359223300971
sg5
F758931.0
sg6
F2177999.0924893348
sg7
F664375.0
sg8
I00
sg9
F746491.2
sg10
F94556.0
ssS'FALLON JAMES B'
p227
(dp228
g3
F3676340.0
sg4
F0.919672131147541
sg5
F2332399.0
sg6
F3083011.0
sg7
F940257.0
sg8
I00
sg9
F374347.0
sg10
F1392142.0
ssS'KOENIG MARK E'
p229
(dp230
g3
F1587421.0
sg4
F0.9605749486652977
sg5
F1920055.0
sg6
F1182929.0
sg7
F671737.0
sg8
I01
sg9
F300000.0
sg10
F1248318.0
ssS'IZZO LAWRENCE L'
p231
(dp232
g3
F1979596.0
sg4
F0.912621359223301
sg5
F5819980.0
sg6
F1571454.0740740742
sg7
F2165172.0
sg8
I00
sg9
F312500.0
sg10
F3654808.0
ssS'TILNEY ELIZABETH A'
p233
(dp234
g3
F399393.0
sg4
F0.8350730688935282
sg5
F1168042.0
sg6
F767985.275862069
sg7
F591250.0
sg8
I00
sg9
F275000.0
sg10
F576792.0
ssS'MARTIN AMANDA K'
p235
(dp236
g3
F8407016.0
sg4
F0.2768264840182648
sg5
F2070306.0
sg6
F6688483.074074075
sg7
F2070306.0
sg8
I00
sg9
F5145434.0
sg10
F1200658.3529411764
ssS'BUY RICHARD B'
p237
(dp238
g3
F2355702.0
sg4
F0.5594405594405595
sg5
F3444470.0
sg6
F1946055.2758620689
sg7
F2542813.0
sg8
I00
sg9
F769862.0
sg10
F901657.0
ssS'CAUSEY RICHARD A'
p239
(dp240
g3
F1868758.0
sg4
F0.8526532715095312
sg5
F2502063.0
sg6
F1734515.0
sg7
F3218787.3333333335
sg8
I01
sg9
F350000.0
sg10
F2502063.0
ssS'TAYLOR MITCHELL S'
p241
(dp242
g3
F1092663.0
sg4
F0.5338078291814946
sg5
F3745048.0
sg6
F1557352.4758620688
sg7
F3181250.0
sg8
I00
sg9
F746491.2
sg10
F563798.0
ssS'DONAHUE JR JEFFREY M'
p243
(dp244
g3
F875760.0
sg4
F1.0947012401352876
sg5
F1080988.0
sg6
F1728824.2
sg7
F765920.0
sg8
I00
sg9
F746491.2
sg10
F315068.0
ssS'GLISAN JR BEN F'
p245
(dp246
g3
F1272284.0
sg4
F1.048368953880765
sg5
F778546.0
sg6
F820020.0
sg7
F384728.0
sg8
I01
sg9
F71023.0
sg10
F393818.0
ss.