cnumpy.core.multiarray
_reconstruct
p0
(cnumpy
ndarray
p1
(I0
tp2
S'b'
p3
tp4
Rp5
(I1
(I19
tp6
cnumpy
dtype
p7
(S'O8'
p8
I0
I1
tp9
Rp10
(I3
S'|'
p11
NNNI-1
I-1
I63
tp12
bI00
(lp13
S'poi'
p14
aS'bonus'
p15
aS'exercised_stock_options'
p16
aS'expenses'
p17
aS'long_term_incentive'
p18
aS'other'
p19
aS'restricted_stock'
p20
aS'salary'
p21
aS'total_payments'
p22
aS'total_stock_value'
p23
aS'from_messages'
p24
aS'from_poi_to_this_person'
p25
aS'from_this_person_to_poi'
p26
aS'shared_receipt_with_poi'
p27
aS'to_messages'
p28
aS'fraction_from_poi'
p29
aS'fraction_to_poi'
p30
aS'related_to_poi'
p31
aS'Effective Salary'
p32
atp33
b.